Certificate:
    Data:
        Version: 3 (0x2)
        Serial Number:
            24:eb:bd:b3:08:6f:8a:ab:e5:d6:91:d5:55:f9:d0:14:e7:5f:29:bb
        Signature Algorithm: sha256WithRSAEncryption
        Issuer: C=CH, O=STMicroelectronics NV, CN=STM TPM EK Intermediate CA 06
        Validity
            Not Before: Sep 25 00:00:00 2020 GMT
            Not After : Dec 31 00:00:00 2049 GMT
        Subject: 
        Subject Public Key Info:
            Public Key Algorithm: rsaEncryption
                Public-Key: (2048 bit)
                Modulus:
                    00:f9:2b:c1:d6:d6:66:74:df:10:e2:7f:ff:ea:73:
                    8f:0e:e0:4d:92:49:ed:4c:45:13:3b:c6:09:b5:a8:
                    72:a6:00:3a:2e:08:9a:5c:ad:16:ee:c6:11:05:1d:
                    76:d9:56:f4:43:6a:38:da:3c:bd:ef:c2:49:b8:c4:
                    85:d3:fa:de:9c:1d:82:aa:82:22:56:99:bf:65:dc:
                    8a:07:7d:c3:d6:0b:91:01:cf:05:09:8c:07:e1:b8:
                    ef:fe:da:f4:5a:eb:ea:ad:84:26:1a:26:93:db:f0:
                    0a:fd:b4:ba:9d:55:34:f5:fe:6a:0b:16:0d:77:0a:
                    46:8f:8c:38:e7:57:34:4c:53:91:95:07:f9:d5:6e:
                    95:9e:96:87:87:25:0d:c0:bf:a0:0d:72:0d:1e:85:
                    b5:af:99:24:54:a0:13:d4:29:b9:22:78:db:31:57:
                    49:ac:96:4a:3f:e5:d1:2b:65:ab:50:eb:2e:17:d8:
                    43:a5:f5:19:c7:9c:65:69:ae:b4:ae:44:dc:bc:42:
                    85:c6:e6:b2:c1:90:09:74:64:2f:0a:63:8a:64:99:
                    21:1d:7c:b9:84:7d:8c:5b:d4:71:ed:c0:af:2b:64:
                    fa:49:d1:20:53:ed:5f:8d:85:84:03:ce:d3:57:81:
                    c9:38:67:95:24:0a:0d:e9:b1:b3:f4:31:71:08:fa:
                    aa:7b
                Exponent: 65537 (0x10001)
        X509v3 extensions:
            X509v3 Authority Key Identifier: 
                FB:17:D7:0D:73:48:70:E9:19:C4:E8:E6:03:97:5E:66:4E:0E:43:DE
            X509v3 Subject Alternative Name: critical
                DirName:/2.23.133.2.1=id:53544D20/2.23.133.2.2=ST33HTPHAHD8/2.23.133.2.3=id:00010102
            X509v3 Subject Directory Attributes: 
                0.0...g....1.0...2.0.......
            X509v3 Basic Constraints: critical
                CA:FALSE
            X509v3 Extended Key Usage: 
                2.23.133.8.1
            X509v3 Key Usage: critical
                Key Encipherment
            Authority Information Access: 
                CA Issuers - URI:http://secure.globalsign.com/stmtpmekint06.crt
    Signature Algorithm: sha256WithRSAEncryption
    Signature Value:
        58:dc:78:77:05:da:da:bc:e2:7d:0b:62:38:7a:ed:5a:e3:33:
        bb:75:a4:2d:67:56:49:e7:ee:81:44:91:16:fb:e2:b5:16:5a:
        5f:77:a1:ce:34:88:a4:30:ba:24:77:ac:52:f6:b7:51:33:67:
        19:d8:b9:f8:0d:ad:fb:82:0a:63:0f:dd:1c:23:d8:24:68:94:
        d0:c2:98:1c:f1:2e:43:fa:52:4a:91:aa:72:f6:17:07:6d:12:
        39:5d:4b:bd:0d:17:fa:05:52:ea:24:a9:e2:4d:6d:b4:7e:7b:
        77:e8:4b:95:07:a4:59:1c:73:00:cf:6d:9f:6f:ed:36:f5:cc:
        29:2c:f8:84:5b:d0:e7:6b:1d:d1:e5:44:e2:1a:f1:6c:a7:da:
        ac:c5:a3:b9:29:2f:8c:e5:03:67:96:a7:73:45:f2:d7:bd:f2:
        b5:83:5b:4a:79:4a:9f:1f:f0:b2:14:09:49:9a:25:01:1b:e3:
        da:41:65:7f:e1:bd:5a:e9:69:d6:d4:4f:01:c1:43:ff:28:be:
        84:c1:dd:d5:9b:3a:d4:e8:04:11:3e:e5:84:5f:16:83:5f:aa:
        b2:b0:49:36:5f:5b:42:5e:29:39:ce:6a:fc:89:71:c8:61:5e:
        70:43:4e:2c:ef:b0:a0:0e:6c:88:a8:ee:c2:5d:8f:51:b1:43:
        be:a8:8f:5b
-----BEGIN CERTIFICATE-----
MIIEBTCCAu2gAwIBAgIUJOu9swhviqvl1pHVVfnQFOdfKbswDQYJKoZIhvcNAQEL
BQAwVTELMAkGA1UEBhMCQ0gxHjAcBgNVBAoTFVNUTWljcm9lbGVjdHJvbmljcyBO
VjEmMCQGA1UEAxMdU1RNIFRQTSBFSyBJbnRlcm1lZGlhdGUgQ0EgMDYwHhcNMjAw
OTI1MDAwMDAwWhcNNDkxMjMxMDAwMDAwWjAAMIIBIjANBgkqhkiG9w0BAQEFAAOC
AQ8AMIIBCgKCAQEA+SvB1tZmdN8Q4n//6nOPDuBNkkntTEUTO8YJtahypgA6Lgia
XK0W7sYRBR122Vb0Q2o42jy978JJuMSF0/renB2CqoIiVpm/ZdyKB33D1guRAc8F
CYwH4bjv/tr0WuvqrYQmGiaT2/AK/bS6nVU09f5qCxYNdwpGj4w451c0TFORlQf5
1W6VnpaHhyUNwL+gDXINHoW1r5kkVKAT1Cm5InjbMVdJrJZKP+XRK2WrUOsuF9hD
pfUZx5xlaa60rkTcvEKFxuaywZAJdGQvCmOKZJkhHXy5hH2MW9Rx7cCvK2T6SdEg
U+1fjYWEA87TV4HJOGeVJAoN6bGz9DFxCPqqewIDAQABo4IBIDCCARwwHwYDVR0j
BBgwFoAU+xfXDXNIcOkZxOjmA5deZk4OQ94wWQYDVR0RAQH/BE8wTaRLMEkxFjAU
BgVngQUCAQwLaWQ6NTM1NDREMjAxFzAVBgVngQUCAgwMU1QzM0hUUEhBSEQ4MRYw
FAYFZ4EFAgMMC2lkOjAwMDEwMTAyMCIGA1UdCQQbMBkwFwYFZ4EFAhAxDjAMDAMy
LjACAQACAgCKMAwGA1UdEwEB/wQCMAAwEAYDVR0lBAkwBwYFZ4EFCAEwDgYDVR0P
AQH/BAQDAgUgMEoGCCsGAQUFBwEBBD4wPDA6BggrBgEFBQcwAoYuaHR0cDovL3Nl
Y3VyZS5nbG9iYWxzaWduLmNvbS9zdG10cG1la2ludDA2LmNydDANBgkqhkiG9w0B
AQsFAAOCAQEAWNx4dwXa2rzifQtiOHrtWuMzu3WkLWdWSefugUSRFvvitRZaX3eh
zjSIpDC6JHesUva3UTNnGdi5+A2t+4IKYw/dHCPYJGiU0MKYHPEuQ/pSSpGqcvYX
B20SOV1LvQ0X+gVS6iSp4k1ttH57d+hLlQekWRxzAM9tn2/tNvXMKSz4hFvQ52sd
0eVE4hrxbKfarMWjuSkvjOUDZ5anc0Xy173ytYNbSnlKnx/wshQJSZolARvj2kFl
f+G9Wulp1tRPAcFD/yi+hMHd1Zs61OgEET7lhF8Wg1+qsrBJNl9bQl4pOc5q/Ilx
yGFecENOLO+woA5siKjuwl2PUbFDvqiPWw==
-----END CERTIFICATE-----
