Certificate:
    Data:
        Version: 3 (0x2)
        Serial Number:
            7e:36:61:65:3e:7b:5a:81:74:3d:03:f1:1a:92:56:ec:ff:be:04:81
        Signature Algorithm: sha384WithRSAEncryption
        Issuer: C=CH, O=STMicroelectronics NV, CN=STSAFE TPM RSA Intermediate CA 10
        Validity
            Not Before: Apr 16 10:33:45 2023 GMT
            Not After : Dec 31 23:59:59 9999 GMT
        Subject: 
        Subject Public Key Info:
            Public Key Algorithm: rsaEncryption
                Public-Key: (2048 bit)
                Modulus:
                    00:d2:c8:63:53:ee:2d:1b:3f:85:44:5a:1e:e1:25:
                    71:36:d6:40:ee:11:b1:03:53:1e:0b:cf:75:48:b9:
                    a7:38:c8:97:19:91:a0:04:91:8f:bf:e5:12:54:b6:
                    36:38:91:65:9f:85:fd:e2:fb:cd:13:54:61:d3:a1:
                    c5:1b:d1:68:3c:10:3f:fd:ca:1e:15:ab:e2:ed:c8:
                    d5:f4:65:21:dd:b7:98:f3:05:fa:7a:b8:0e:31:3c:
                    65:df:cc:5b:88:13:7a:2c:a6:2e:ab:04:39:d7:0b:
                    8c:ac:e0:79:43:49:fc:5c:82:70:8c:27:e7:49:61:
                    82:02:8d:7a:15:a7:54:c6:d7:84:8b:13:ae:59:b1:
                    d6:f8:87:fb:4f:f8:f7:16:c1:f3:0f:e4:02:6c:26:
                    2b:43:50:33:ac:70:87:36:c8:b0:30:0c:8a:5d:d2:
                    27:70:99:cd:68:a8:bc:a8:b0:e5:0f:82:17:4f:64:
                    5b:8e:28:d2:a0:01:56:3b:4f:3a:2e:2e:60:c2:d5:
                    55:a0:c5:0b:37:80:78:77:cd:f7:d3:d1:08:d7:52:
                    ef:0a:23:42:58:60:09:67:ba:71:4c:c1:3b:f9:62:
                    4c:ba:b5:dc:25:e7:35:f5:cf:4c:e1:8a:e3:10:01:
                    20:83:17:f1:29:cf:81:92:db:f5:89:b0:82:78:e7:
                    a0:57
                Exponent: 65537 (0x10001)
        X509v3 extensions:
            X509v3 Authority Key Identifier: 
                65:70:62:A7:10:56:91:6F:8C:7F:79:8A:92:DD:E6:D8:1D:0A:98:DA
            X509v3 Subject Alternative Name: critical
                DirName:/tcg-at-tpmManufacturer=id:53544D20/tcg-at-tpmModel=ST33KTPM2X/tcg-at-tpmVersion=id:00090100
            X509v3 Subject Directory Attributes: 
                TPM Specification:
    0:d=0  hl=2 l=  12 cons: SEQUENCE          
    2:d=1  hl=2 l=   3 prim:  UTF8STRING        :2.0
    7:d=1  hl=2 l=   1 prim:  INTEGER           :00
   10:d=1  hl=2 l=   2 prim:  INTEGER           :9F


            X509v3 Basic Constraints: critical
                CA:FALSE
            X509v3 Extended Key Usage: 
                Endorsement Key Certificate
            X509v3 Key Usage: critical
                Key Encipherment
            Authority Information Access: 
                CA Issuers - URI:http://sw-center.st.com/STSAFE/stsafetpmrsaint10.crt
    Signature Algorithm: sha384WithRSAEncryption
    Signature Value:
        a3:62:a4:f9:24:81:15:0c:03:24:c9:87:cc:56:44:09:8e:3f:
        6a:6e:b7:a7:7f:0c:4b:95:b1:84:67:86:fb:15:c0:93:d4:61:
        cd:8a:8b:58:66:f1:fc:bc:38:29:d1:01:c0:a1:c1:00:e3:d2:
        d8:1c:c8:08:e8:97:5a:ae:b1:21:b9:67:ea:64:23:07:5e:b7:
        85:8b:71:88:84:d2:e7:ff:11:63:33:e3:1b:ec:98:80:c3:22:
        99:f7:f1:f9:5b:00:cf:b9:5e:3b:15:73:31:82:f3:f5:8c:d8:
        31:71:4a:59:66:98:3e:41:a5:90:e6:d2:d0:43:9f:00:94:dd:
        ba:41:36:87:94:67:f8:06:a1:83:5d:0f:15:8f:9f:0a:9c:e5:
        9c:b5:f8:08:5e:6a:28:10:cc:65:0f:14:a4:54:db:13:2e:06:
        43:93:99:d2:60:63:7e:7b:76:f2:d9:bd:5a:c9:51:61:92:26:
        af:04:7b:f6:d1:82:3f:d4:14:53:c0:04:b1:50:81:5f:12:f3:
        1e:c7:9c:cc:66:c1:45:30:80:70:b7:17:de:30:12:ce:7f:9a:
        8f:d5:41:76:d4:b8:9d:93:94:a8:53:dc:3c:bf:de:cb:0a:8c:
        d8:15:3a:72:0e:6f:b1:b9:e3:28:e0:d8:2c:d1:f2:77:08:f6:
        8c:f4:40:62:66:e0:fd:b8:dd:9b:fe:88:14:ac:29:35:db:d9:
        d8:b5:0b:15:ae:b8:4e:ec:db:76:a3:13:10:67:4c:a4:df:9c:
        44:5f:78:76:ed:89:3f:0c:52:aa:de:d3:69:03:1d:7f:2a:97:
        fc:6b:33:47:ce:ab:4d:be:24:e0:d9:53:40:e7:b1:92:37:c1:
        70:c4:be:34:72:f1:7f:86:ca:20:c6:53:ec:27:a6:0c:9c:48:
        dc:e8:48:05:af:bc:84:71:45:da:9c:69:9e:10:26:1f:5d:88:
        00:57:e3:50:84:b5:e2:38:41:d4:b7:d9:be:cb:7a:33:dc:6c:
        91:f9:eb:a3:61:94:f4:5e:64:31:60:b2:c2:04:1a:37:58:60:
        b6:86:15:97:72:6b:76:04:aa:06:4c:7f:24:5f:54:bd:7a:f7:
        70:c1:8a:fb:d8:c2:0b:72:a9:08:fe:68:a0:21:00:62:c9:4d:
        01:17:a9:d4:21:eb:ad:a1:30:f6:79:6c:14:12:f0:56:7c:32:
        77:12:e8:2a:1d:2d:8b:ec:5c:95:30:a9:89:68:c4:af:65:70:
        d0:e4:d2:b9:08:89:ba:b3:49:42:f5:fa:53:db:a5:0c:04:db:
        15:7e:2d:06:5b:34:8c:a3:da:14:3a:5d:36:26:c2:bb:13:f8:
        2f:05:a7:fb:d4:09:fc:fb
-----BEGIN CERTIFICATE-----
MIIFDzCCAvegAwIBAgIUfjZhZT57WoF0PQPxGpJW7P++BIEwDQYJKoZIhvcNAQEM
BQAwWTELMAkGA1UEBhMCQ0gxHjAcBgNVBAoTFVNUTWljcm9lbGVjdHJvbmljcyBO
VjEqMCgGA1UEAxMhU1RTQUZFIFRQTSBSU0EgSW50ZXJtZWRpYXRlIENBIDEwMCAX
DTIzMDQxNjEwMzM0NVoYDzk5OTkxMjMxMjM1OTU5WjAAMIIBIjANBgkqhkiG9w0B
AQEFAAOCAQ8AMIIBCgKCAQEA0shjU+4tGz+FRFoe4SVxNtZA7hGxA1MeC891SLmn
OMiXGZGgBJGPv+USVLY2OJFln4X94vvNE1Rh06HFG9FoPBA//coeFavi7cjV9GUh
3beY8wX6ergOMTxl38xbiBN6LKYuqwQ51wuMrOB5Q0n8XIJwjCfnSWGCAo16FadU
xteEixOuWbHW+If7T/j3FsHzD+QCbCYrQ1AzrHCHNsiwMAyKXdIncJnNaKi8qLDl
D4IXT2RbjijSoAFWO086Li5gwtVVoMULN4B4d83309EI11LvCiNCWGAJZ7pxTME7
+WJMurXcJec19c9M4YrjEAEggxfxKc+Bktv1ibCCeOegVwIDAQABo4IBJDCCASAw
HwYDVR0jBBgwFoAUZXBipxBWkW+Mf3mKkt3m2B0KmNowVwYDVR0RAQH/BE0wS6RJ
MEcxFjAUBgVngQUCAQwLaWQ6NTM1NDREMjAxFTATBgVngQUCAgwKU1QzM0tUUE0y
WDEWMBQGBWeBBQIDDAtpZDowMDA5MDEwMDAiBgNVHQkEGzAZMBcGBWeBBQIQMQ4w
DAwDMi4wAgEAAgIAnzAMBgNVHRMBAf8EAjAAMBAGA1UdJQQJMAcGBWeBBQgBMA4G
A1UdDwEB/wQEAwIFIDBQBggrBgEFBQcBAQREMEIwQAYIKwYBBQUHMAKGNGh0dHA6
Ly9zdy1jZW50ZXIuc3QuY29tL1NUU0FGRS9zdHNhZmV0cG1yc2FpbnQxMC5jcnQw
DQYJKoZIhvcNAQEMBQADggIBAKNipPkkgRUMAyTJh8xWRAmOP2put6d/DEuVsYRn
hvsVwJPUYc2Ki1hm8fy8OCnRAcChwQDj0tgcyAjol1qusSG5Z+pkIwdet4WLcYiE
0uf/EWMz4xvsmIDDIpn38flbAM+5XjsVczGC8/WM2DFxSllmmD5BpZDm0tBDnwCU
3bpBNoeUZ/gGoYNdDxWPnwqc5Zy1+AheaigQzGUPFKRU2xMuBkOTmdJgY357dvLZ
vVrJUWGSJq8Ee/bRgj/UFFPABLFQgV8S8x7HnMxmwUUwgHC3F94wEs5/mo/VQXbU
uJ2TlKhT3Dy/3ssKjNgVOnIOb7G54yjg2CzR8ncI9oz0QGJm4P243Zv+iBSsKTXb
2di1CxWuuE7s23ajExBnTKTfnERfeHbtiT8MUqre02kDHX8ql/xrM0fOq02+JODZ
U0DnsZI3wXDEvjRy8X+GyiDGU+wnpgycSNzoSAWvvIRxRdqcaZ4QJh9diABX41CE
teI4QdS32b7LejPcbJH566NhlPReZDFgssIEGjdYYLaGFZdya3YEqgZMfyRfVL16
93DBivvYwgtyqQj+aKAhAGLJTQEXqdQh662hMPZ5bBQS8FZ8MncS6CodLYvsXJUw
qYloxK9lcNDk0rkIibqzSUL1+lPbpQwE2xV+LQZbNIyj2hQ6XTYmwrsT+C8Fp/vU
Cfz7
-----END CERTIFICATE-----