Certificate:
    Data:
        Version: 3 (0x2)
        Serial Number:
            67:6b:e2:2e:ea:33:9f:52:60:68:6d:a0:88:af:7a:64:5e:5c:3f
        Signature Algorithm: sha256WithRSAEncryption
        Issuer: C=US, ST=California, L=Mountain View, O=Google LLC, OU=Google Cloud, CN=EK/AK CA Root
        Validity
            Not Before: Aug 23 22:26:29 2022 GMT
            Not After : Jul  8 05:57:23 2122 GMT
        Subject: C=US, ST=California, L=Mountain View, O=Google LLC, OU=Google Cloud, CN=EK/AK CA Intermediate
        Subject Public Key Info:
            Public Key Algorithm: rsaEncryption
                Public-Key: (4096 bit)
                Modulus:
                    00:a0:63:1e:d7:80:61:aa:1f:64:5a:71:d6:d1:59:
                    ea:36:5f:88:6a:47:bd:29:40:0d:4e:00:b5:db:3f:
                    bc:50:ba:9c:88:8b:c3:a2:2c:34:7b:34:35:7c:ff:
                    e9:c0:a8:4d:47:17:15:c0:fe:7e:26:06:c9:26:5b:
                    99:c3:59:6e:d6:e5:79:b6:b2:ec:e7:20:3f:12:bf:
                    42:7d:51:97:f0:24:05:d5:30:7b:65:fb:fa:1d:fe:
                    e1:bf:b9:6f:ed:e1:3d:f3:aa:dd:6b:5a:0c:e7:98:
                    49:5c:4b:74:2f:70:6f:59:f5:69:3e:26:c1:96:89:
                    2d:4a:aa:9b:49:5c:eb:04:9a:ed:48:58:bd:3f:e1:
                    e1:92:ee:81:c3:a6:6d:d5:3f:fc:ff:3e:8e:55:d3:
                    1b:3c:d1:21:6c:fb:42:18:5c:66:c3:2c:ca:7d:bd:
                    f0:59:4d:98:08:8c:d9:77:b8:79:de:95:74:79:ad:
                    55:24:bd:e2:1a:64:41:26:10:b7:46:4c:2f:b3:74:
                    1c:49:96:18:10:d7:ed:eb:1e:36:8d:64:8a:fe:dd:
                    96:ae:b6:64:9c:fd:90:eb:b3:85:96:15:4b:fe:03:
                    28:d0:d2:7a:6d:cc:e8:bd:8d:37:c9:14:e7:a0:37:
                    0d:e9:85:ca:aa:57:3b:8b:03:dd:50:99:fc:ea:32:
                    47:3c:bd:ac:f4:a0:96:47:f5:03:50:6b:5b:e0:fa:
                    99:49:a1:d0:5c:0e:7c:37:fb:59:4b:24:38:f1:3d:
                    2f:f9:aa:fd:09:85:55:00:83:95:f7:75:49:0e:7d:
                    77:8f:49:59:2d:ac:75:6c:09:1b:ce:5d:08:ee:29:
                    75:4b:e5:b6:c0:45:71:f8:ad:d6:51:ff:f6:f5:a0:
                    61:44:b6:77:0d:d9:32:8f:f4:da:f0:7c:61:31:7a:
                    5d:39:c8:9d:74:45:e1:d8:6e:28:fd:66:90:02:1d:
                    d7:09:6f:05:1a:42:97:8d:6f:00:a3:b9:01:0c:16:
                    e9:98:2b:e5:46:f3:ad:4c:15:9e:b7:1f:5d:20:e1:
                    b3:52:45:f9:de:cd:d1:d6:ca:14:bc:c7:99:00:ff:
                    36:d3:c7:de:d3:af:93:3a:3f:a4:ec:c7:27:e6:a6:
                    35:5e:e0:0b:cc:02:a1:66:54:7d:84:6c:35:a6:32:
                    84:21:40:8a:4c:96:df:2f:e2:f6:40:37:4f:ec:e4:
                    b6:29:cd:a6:05:54:00:70:bb:bd:3e:66:86:fb:e3:
                    99:a1:54:e5:52:b1:9d:ff:a0:c1:7c:a4:c4:b0:df:
                    9a:ca:d5:a8:09:19:09:2a:ef:24:4d:66:32:68:c8:
                    57:01:80:f5:0b:8c:a9:e7:12:d0:30:ac:85:22:63:
                    57:ba:65
                Exponent: 65537 (0x10001)
        X509v3 extensions:
            X509v3 Key Usage: critical
                Certificate Sign, CRL Sign
            X509v3 Extended Key Usage: 
                2.23.133.8.1
            X509v3 Basic Constraints: critical
                CA:TRUE
            X509v3 Subject Key Identifier: 
                E9:66:73:54:67:66:1B:EF:DD:65:BF:E5:E8:5C:E3:91:0B:9B:05:52
            X509v3 Authority Key Identifier: 
                49:E7:4A:5B:56:29:F5:9D:79:B7:A6:30:3C:03:B2:8F:E7:14:DD:4C
            Authority Information Access: 
                CA Issuers - URI:http://privateca-content-62d71773-0000-21da-852e-f4f5e80d7778.storage.googleapis.com/032bf9d39db4fa06aade/ca.crt
            X509v3 CRL Distribution Points: 
                Full Name:
                  URI:http://privateca-content-62d71773-0000-21da-852e-f4f5e80d7778.storage.googleapis.com/032bf9d39db4fa06aade/crl.crl
    Signature Algorithm: sha256WithRSAEncryption
    Signature Value:
        93:ae:9d:13:50:45:1e:21:c4:14:69:cd:55:a1:01:a4:9f:b4:
        2e:e6:c2:fb:f2:b3:ea:7a:66:65:29:6d:80:0e:6e:3b:1a:c5:
        15:fe:6a:e7:19:17:68:e8:7d:2d:55:0c:f4:32:ee:3d:1a:8f:
        cc:13:22:1c:f4:aa:fe:a3:12:f9:0c:64:7f:c4:e5:f6:f6:ac:
        2f:d2:4a:2a:ae:8b:9d:51:c2:24:d6:8b:b4:72:d9:73:2e:01:
        b8:06:da:cb:82:8a:b4:cb:e8:ef:e2:61:e7:7a:bf:22:5f:d3:
        b8:b2:b0:c2:b4:a3:46:c4:78:28:44:87:75:cf:40:da:e5:f8:
        37:1d:ad:f7:f8:7d:41:ba:48:61:a0:c7:42:17:58:91:c3:f6:
        aa:94:f3:de:6b:61:70:b2:16:12:5e:f9:00:ad:3c:78:3f:1e:
        76:17:ff:fc:86:96:6e:f1:84:44:98:97:48:60:11:50:88:4e:
        fb:b4:62:33:65:2a:80:44:88:13:2d:1e:4d:01:1c:27:85:91:
        49:be:a4:1c:9d:3a:34:a5:d0:11:d4:26:cd:d4:00:95:ee:69:
        80:e9:fc:28:e9:9e:76:1f:46:8f:04:17:65:f2:e7:f6:c2:a8:
        55:3e:8e:b8:d8:2f:3d:71:6c:e8:76:f0:7e:24:36:e7:59:dc:
        a5:7d:8d:0a:0c:fa:50:ea:99:e3:3b:ae:ae:fd:af:98:9e:d5:
        77:e9:0b:6d:6d:8f:17:00:26:4b:66:c4:93:f5:85:1a:4e:b5:
        6a:15:b5:22:45:2e:3d:39:6a:fa:a9:0f:0b:7a:01:60:ea:d9:
        ac:ea:b8:de:e0:8d:91:45:fe:f3:41:e9:f6:ca:fb:0f:d8:8b:
        b0:2b:48:bc:a8:db:3d:7c:bc:00:56:34:48:95:d3:7d:8d:1b:
        48:eb:5d:76:16:a1:ce:a5:f1:b7:d7:53:1c:06:e8:db:64:8f:
        62:fc:a7:7e:72:9f:18:d1:d2:60:3b:de:5e:f3:f7:6d:22:04:
        09:7a:ae:9d:79:15:fa:11:dc:b4:b3:a3:59:7e:55:ab:9c:9e:
        b5:9c:9c:7a:30:fe:41:05:1a:a8:ed:3f:cb:84:9b:34:1c:e5:
        1a:be:e5:77:79:ff:ae:23:11:ca:26:18:a3:61:fb:a6:f4:81:
        8d:d8:eb:ba:b6:36:5a:c5:6b:a1:68:f6:f7:f3:0f:0a:9d:61:
        26:33:10:d6:ff:3d:1d:ee:18:58:64:be:82:73:4d:61:57:76:
        c5:72:a6:4d:1f:ac:cb:17:d5:c8:5d:6c:73:8c:e2:3c:c3:36:
        11:c0:6d:03:6e:98:7f:36:13:c6:af:c8:a8:de:a4:87:fe:10:
        f0:ba:d6:99:8f:79:11:d7
-----BEGIN CERTIFICATE-----
MIIHIjCCBQqgAwIBAgITZ2viLuozn1JgaG2giK96ZF5cPzANBgkqhkiG9w0BAQsF
ADB+MQswCQYDVQQGEwJVUzETMBEGA1UECBMKQ2FsaWZvcm5pYTEWMBQGA1UEBxMN
TW91bnRhaW4gVmlldzETMBEGA1UEChMKR29vZ2xlIExMQzEVMBMGA1UECxMMR29v
Z2xlIENsb3VkMRYwFAYDVQQDEw1FSy9BSyBDQSBSb290MCAXDTIyMDgyMzIyMjYy
OVoYDzIxMjIwNzA4MDU1NzIzWjCBhjELMAkGA1UEBhMCVVMxEzARBgNVBAgTCkNh
bGlmb3JuaWExFjAUBgNVBAcTDU1vdW50YWluIFZpZXcxEzARBgNVBAoTCkdvb2ds
ZSBMTEMxFTATBgNVBAsTDEdvb2dsZSBDbG91ZDEeMBwGA1UEAxMVRUsvQUsgQ0Eg
SW50ZXJtZWRpYXRlMIICIjANBgkqhkiG9w0BAQEFAAOCAg8AMIICCgKCAgEAoGMe
14Bhqh9kWnHW0VnqNl+Iake9KUANTgC12z+8ULqciIvDoiw0ezQ1fP/pwKhNRxcV
wP5+JgbJJluZw1lu1uV5trLs5yA/Er9CfVGX8CQF1TB7Zfv6Hf7hv7lv7eE986rd
a1oM55hJXEt0L3BvWfVpPibBloktSqqbSVzrBJrtSFi9P+Hhku6Bw6Zt1T/8/z6O
VdMbPNEhbPtCGFxmwyzKfb3wWU2YCIzZd7h53pV0ea1VJL3iGmRBJhC3Rkwvs3Qc
SZYYENft6x42jWSK/t2WrrZknP2Q67OFlhVL/gMo0NJ6bczovY03yRTnoDcN6YXK
qlc7iwPdUJn86jJHPL2s9KCWR/UDUGtb4PqZSaHQXA58N/tZSyQ48T0v+ar9CYVV
AIOV93VJDn13j0lZLax1bAkbzl0I7il1S+W2wEVx+K3WUf/29aBhRLZ3Ddkyj/Ta
8HxhMXpdOciddEXh2G4o/WaQAh3XCW8FGkKXjW8Ao7kBDBbpmCvlRvOtTBWetx9d
IOGzUkX53s3R1soUvMeZAP8208fe06+TOj+k7Mcn5qY1XuALzAKhZlR9hGw1pjKE
IUCKTJbfL+L2QDdP7OS2Kc2mBVQAcLu9PmaG++OZoVTlUrGd/6DBfKTEsN+aytWo
CRkJKu8kTWYyaMhXAYD1C4yp5xLQMKyFImNXumUCAwEAAaOCAYwwggGIMA4GA1Ud
DwEB/wQEAwIBBjAQBgNVHSUECTAHBgVngQUIATAPBgNVHRMBAf8EBTADAQH/MB0G
A1UdDgQWBBTpZnNUZ2Yb791lv+XoXOORC5sFUjAfBgNVHSMEGDAWgBRJ50pbVin1
nXm3pjA8A7KP5xTdTDCBjQYIKwYBBQUHAQEEgYAwfjB8BggrBgEFBQcwAoZwaHR0
cDovL3ByaXZhdGVjYS1jb250ZW50LTYyZDcxNzczLTAwMDAtMjFkYS04NTJlLWY0
ZjVlODBkNzc3OC5zdG9yYWdlLmdvb2dsZWFwaXMuY29tLzAzMmJmOWQzOWRiNGZh
MDZhYWRlL2NhLmNydDCBggYDVR0fBHsweTB3oHWgc4ZxaHR0cDovL3ByaXZhdGVj
YS1jb250ZW50LTYyZDcxNzczLTAwMDAtMjFkYS04NTJlLWY0ZjVlODBkNzc3OC5z
dG9yYWdlLmdvb2dsZWFwaXMuY29tLzAzMmJmOWQzOWRiNGZhMDZhYWRlL2NybC5j
cmwwDQYJKoZIhvcNAQELBQADggIBAJOunRNQRR4hxBRpzVWhAaSftC7mwvvys+p6
ZmUpbYAObjsaxRX+aucZF2jofS1VDPQy7j0aj8wTIhz0qv6jEvkMZH/E5fb2rC/S
Siqui51RwiTWi7Ry2XMuAbgG2suCirTL6O/iYed6vyJf07iysMK0o0bEeChEh3XP
QNrl+Dcdrff4fUG6SGGgx0IXWJHD9qqU895rYXCyFhJe+QCtPHg/HnYX//yGlm7x
hESYl0hgEVCITvu0YjNlKoBEiBMtHk0BHCeFkUm+pBydOjSl0BHUJs3UAJXuaYDp
/CjpnnYfRo8EF2Xy5/bCqFU+jrjYLz1xbOh28H4kNudZ3KV9jQoM+lDqmeM7rq79
r5ie1XfpC21tjxcAJktmxJP1hRpOtWoVtSJFLj05avqpDwt6AWDq2azquN7gjZFF
/vNB6fbK+w/Yi7ArSLyo2z18vABWNEiV032NG0jrXXYWoc6l8bfXUxwG6Ntkj2L8
p35ynxjR0mA73l7z920iBAl6rp15FfoR3LSzo1l+VaucnrWcnHow/kEFGqjtP8uE
mzQc5Rq+5Xd5/64jEcomGKNh+6b0gY3Y67q2NlrFa6Fo9vfzDwqdYSYzENb/PR3u
GFhkvoJzTWFXdsVypk0frMsX1chdbHOM4jzDNhHAbQNumH82E8avyKjepIf+EPC6
1pmPeRHX
-----END CERTIFICATE-----
