Certificate:
    Data:
        Version: 3 (0x2)
        Serial Number:
            04:4d:74:25:e9:db:ea:6f:98:56:06:64:45:e2:da:03:8b:bb:13
        Signature Algorithm: sha256WithRSAEncryption
        Issuer: C=US, ST=California, L=Mountain View, O=Google LLC, OU=Google Cloud, CN=EK/AK CA Intermediate
        Validity
            Not Before: Dec 24 11:32:31 2024 GMT
            Not After : Dec 17 11:32:30 2054 GMT
        Subject: L=us-central1-a, O=Google Compute Engine, OU=core-eso, CN=8354602548011148588
        Subject Public Key Info:
            Public Key Algorithm: rsaEncryption
                Public-Key: (2048 bit)
                Modulus:
                    00:e4:96:33:04:ba:58:f5:a2:0f:94:81:49:3e:d2:
                    86:b8:41:fc:a7:f2:49:cb:27:fc:53:91:e2:28:ee:
                    17:61:76:7e:aa:58:e5:53:46:bc:ff:3c:b0:29:83:
                    48:ae:d6:d8:c8:12:b9:ea:3f:5d:56:ce:49:c1:99:
                    0d:ba:3f:86:65:92:1c:96:11:2c:67:9d:d2:c8:12:
                    3d:b2:eb:f2:f1:48:69:da:b5:3b:87:83:1b:4e:43:
                    a5:2e:d7:57:32:29:95:b8:3d:76:94:a2:20:40:33:
                    df:22:db:3d:07:59:ed:22:5e:ba:cc:e1:0e:e7:6a:
                    f2:da:14:56:3a:fc:ae:00:a1:b9:31:b1:0d:d3:48:
                    16:9a:3f:42:58:8e:43:88:6b:e6:29:ed:f4:fa:65:
                    23:a8:ce:46:c6:c5:80:c3:82:da:08:66:6a:6b:45:
                    e8:b4:2e:61:2e:1a:87:72:db:9c:db:8d:4a:a7:bc:
                    a5:ef:11:12:e2:75:e5:18:a6:64:87:3d:dc:d5:41:
                    46:18:cf:87:cc:8e:89:af:f6:50:e9:26:e5:0c:21:
                    97:09:22:63:f0:bc:4e:36:f6:0a:25:a5:56:37:35:
                    03:85:e2:75:20:88:7b:4c:46:d0:10:32:b6:07:1d:
                    5a:b2:b8:72:9e:d6:2a:a1:d0:b5:31:2a:74:5c:9a:
                    6d:09
                Exponent: 65537 (0x10001)
        X509v3 extensions:
            X509v3 Key Usage: critical
                Key Encipherment
            X509v3 Basic Constraints: critical
                CA:FALSE
            X509v3 Subject Key Identifier: 
                CE:21:CF:98:7D:DE:F9:CB:C6:2F:B8:0E:4A:83:C6:60:E4:48:DE:B9
            X509v3 Authority Key Identifier: 
                E9:66:73:54:67:66:1B:EF:DD:65:BF:E5:E8:5C:E3:91:0B:9B:05:52
            Authority Information Access: 
                CA Issuers - URI:http://privateca-content-633beb94-0000-25c1-a9d7-001a114ba6e8.storage.googleapis.com/c59a22589ab43a57e3a4/ca.crt
            1.3.6.1.4.1.11129.2.1.21: 
us-central1-a.....s^...core-eso..s.....%,..attestor. 0...............................
    Signature Algorithm: sha256WithRSAEncryption
    Signature Value:
        3c:72:ba:f1:1b:fb:c1:f2:aa:76:12:34:bf:20:71:8f:a9:31:
        ad:aa:23:cb:64:0f:4a:2c:79:a1:9b:1c:f3:2f:0e:0a:00:68:
        4c:b1:69:27:19:2c:5e:84:5f:e0:bb:e2:ba:09:45:8b:1e:4e:
        78:25:37:6d:b2:7d:bd:fa:a9:51:0d:08:b2:60:d9:d0:4e:96:
        b9:03:66:c3:21:d2:fd:49:f3:b7:e6:f0:8b:aa:85:57:a3:fa:
        af:74:ed:cb:7a:6f:f2:4d:29:0d:23:8f:20:09:02:a2:f3:29:
        bd:2f:a0:7c:8e:8f:94:8d:be:79:8f:f4:4b:4a:87:1b:4c:ef:
        b4:43:a2:b8:17:aa:30:8c:90:cc:a3:4d:87:79:2e:73:f9:ac:
        9d:15:60:55:25:81:05:47:07:c1:7a:1f:c3:30:33:55:b0:13:
        07:c3:61:8d:37:df:19:62:83:df:fe:9c:7f:4b:90:8b:bd:a7:
        19:4b:be:b5:37:d0:64:71:2c:f6:83:96:1c:db:e6:f0:e8:37:
        6c:6d:d8:6c:dd:09:5c:93:c5:55:ab:d5:e2:2c:93:a0:26:cb:
        92:21:61:91:7a:1e:02:b6:0b:81:cc:88:4d:7a:ba:78:52:2e:
        cb:eb:44:5e:24:52:c5:5f:32:c9:c5:ca:d1:6a:f8:48:c2:e1:
        83:bd:9f:92:ec:be:5a:cd:28:57:f6:ca:e6:12:94:dc:25:e7:
        ab:a1:4d:9c:85:93:96:ef:1f:c1:c6:9a:d0:6a:bb:f9:e9:4c:
        9c:e8:dc:7d:b8:0b:cd:cd:18:3b:87:59:3f:4d:39:c2:05:3b:
        d6:9d:5a:35:5c:4c:c9:47:87:b5:c8:7f:0a:56:32:c8:3e:0e:
        1c:e1:5a:7e:34:91:26:8a:b0:2e:70:16:da:d8:19:96:a5:49:
        46:f0:65:37:86:ae:70:67:e0:76:8a:a0:66:ca:b5:7d:68:a7:
        d8:f5:7e:e4:5a:25:28:8b:00:72:84:c8:4e:6e:83:eb:15:22:
        c6:0c:2f:be:6f:11:c0:77:8c:ac:3d:f0:2e:21:41:59:a5:59:
        bb:10:c8:33:ee:98:74:76:9c:5e:1d:bd:8c:04:de:65:d9:71:
        59:00:15:14:40:86:09:ce:29:c6:07:a5:ac:7c:be:0f:9f:9b:
        fe:de:88:56:42:f5:8f:ba:ba:39:a1:f8:64:5c:cd:9b:76:08:
        52:7b:f6:46:a1:b8:da:e1:50:3f:e8:57:f6:19:b4:33:3a:c1:
        32:b7:58:66:13:45:6c:48:60:64:18:da:19:c1:f9:4f:69:07:
        50:f6:e6:0e:e1:e9:5e:aa:71:52:89:40:36:b3:9d:9f:c1:ec:
        4f:70:35:04:fd:59:32:55
-----BEGIN CERTIFICATE-----
MIIF3DCCA8SgAwIBAgITBE10Jenb6m+YVgZkReLaA4u7EzANBgkqhkiG9w0BAQsF
ADCBhjELMAkGA1UEBhMCVVMxEzARBgNVBAgTCkNhbGlmb3JuaWExFjAUBgNVBAcT
DU1vdW50YWluIFZpZXcxEzARBgNVBAoTCkdvb2dsZSBMTEMxFTATBgNVBAsTDEdv
b2dsZSBDbG91ZDEeMBwGA1UEAxMVRUsvQUsgQ0EgSW50ZXJtZWRpYXRlMCAXDTI0
MTIyNDExMzIzMVoYDzIwNTQxMjE3MTEzMjMwWjBpMRYwFAYDVQQHEw11cy1jZW50
cmFsMS1hMR4wHAYDVQQKExVHb29nbGUgQ29tcHV0ZSBFbmdpbmUxETAPBgNVBAsT
CGNvcmUtZXNvMRwwGgYDVQQDExM4MzU0NjAyNTQ4MDExMTQ4NTg4MIIBIjANBgkq
hkiG9w0BAQEFAAOCAQ8AMIIBCgKCAQEA5JYzBLpY9aIPlIFJPtKGuEH8p/JJyyf8
U5HiKO4XYXZ+qljlU0a8/zywKYNIrtbYyBK56j9dVs5JwZkNuj+GZZIclhEsZ53S
yBI9suvy8Uhp2rU7h4MbTkOlLtdXMimVuD12lKIgQDPfIts9B1ntIl66zOEO52ry
2hRWOvyuAKG5MbEN00gWmj9CWI5DiGvmKe30+mUjqM5GxsWAw4LaCGZqa0XotC5h
LhqHctuc241Kp7yl7xES4nXlGKZkhz3c1UFGGM+HzI6Jr/ZQ6SblDCGXCSJj8LxO
NvYKJaVWNzUDheJ1IIh7TEbQEDK2Bx1asrhyntYqodC1MSp0XJptCQIDAQABo4IB
WzCCAVcwDgYDVR0PAQH/BAQDAgUgMAwGA1UdEwEB/wQCMAAwHQYDVR0OBBYEFM4h
z5h93vnLxi+4DkqDxmDkSN65MB8GA1UdIwQYMBaAFOlmc1RnZhvv3WW/5ehc45EL
mwVSMIGNBggrBgEFBQcBAQSBgDB+MHwGCCsGAQUFBzAChnBodHRwOi8vcHJpdmF0
ZWNhLWNvbnRlbnQtNjMzYmViOTQtMDAwMC0yNWMxLWE5ZDctMDAxYTExNGJhNmU4
LnN0b3JhZ2UuZ29vZ2xlYXBpcy5jb20vYzU5YTIyNTg5YWI0M2E1N2UzYTQvY2Eu
Y3J0MGcGCisGAQQB1nkCARUEWTBXDA11cy1jZW50cmFsMS1hAgYA569zXpwMCGNv
cmUtZXNvAghz8YLAucclLAwIYXR0ZXN0b3KgIDAeoAMCAQChAwEB/6IDAQH/owMB
AQCkAwEBAKUDAQEAMA0GCSqGSIb3DQEBCwUAA4ICAQA8crrxG/vB8qp2EjS/IHGP
qTGtqiPLZA9KLHmhmxzzLw4KAGhMsWknGSxehF/gu+K6CUWLHk54JTdtsn29+qlR
DQiyYNnQTpa5A2bDIdL9SfO35vCLqoVXo/qvdO3Lem/yTSkNI48gCQKi8ym9L6B8
jo+Ujb55j/RLSocbTO+0Q6K4F6owjJDMo02HeS5z+aydFWBVJYEFRwfBeh/DMDNV
sBMHw2GNN98ZYoPf/px/S5CLvacZS761N9BkcSz2g5Yc2+bw6Ddsbdhs3Qlck8VV
q9XiLJOgJsuSIWGReh4CtguBzIhNerp4Ui7L60ReJFLFXzLJxcrRavhIwuGDvZ+S
7L5azShX9srmEpTcJeeroU2chZOW7x/BxprQarv56Uyc6Nx9uAvNzRg7h1k/TTnC
BTvWnVo1XEzJR4e1yH8KVjLIPg4c4Vp+NJEmirAucBba2BmWpUlG8GU3hq5wZ+B2
iqBmyrV9aKfY9X7kWiUoiwByhMhOboPrFSLGDC++bxHAd4ysPfAuIUFZpVm7EMgz
7ph0dpxeHb2MBN5l2XFZABUUQIYJzinGB6WsfL4Pn5v+3ohWQvWPuro5ofhkXM2b
dghSe/ZGobja4VA/6Ff2GbQzOsEyt1hmE0VsSGBkGNoZwflPaQdQ9uYO4eleqnFS
iUA2s52fwexPcDUE/VkyVQ==
-----END CERTIFICATE-----

