Certificate:
    Data:
        Version: 3 (0x2)
        Serial Number:
            04:00:00:00:00:01:20:19:09:19:ae
        Signature Algorithm: sha256WithRSAEncryption
        Issuer: OU=GlobalSign Trusted Computing Certificate Authority, O=GlobalSign, CN=GlobalSign Trusted Platform Module Root CA
        Validity
            Not Before: Mar 18 10:00:00 2009 GMT
            Not After : Mar 18 10:00:00 2049 GMT
        Subject: OU=GlobalSign Trusted Computing Certificate Authority, O=GlobalSign, CN=GlobalSign Trusted Platform Module Root CA
        Subject Public Key Info:
            Public Key Algorithm: rsaEncryption
                Public-Key: (2048 bit)
                Modulus:
                    00:f8:b7:1a:2d:30:1f:24:d3:ed:da:b6:e1:c6:85:
                    02:9d:f5:81:71:43:bc:02:d1:18:9a:cc:88:ff:93:
                    ba:72:18:3d:a7:18:0f:c7:81:55:23:44:89:5a:02:
                    51:c5:5f:63:1c:e5:fc:33:d3:c6:64:72:19:78:10:
                    33:c0:95:87:d4:c7:af:10:d3:5b:b3:76:3d:20:28:
                    67:b7:ef:96:68:d3:88:12:ff:21:0e:e6:d4:5f:bd:
                    c0:62:3f:16:e6:8c:4e:98:73:c3:a9:41:75:ae:c7:
                    16:52:18:29:36:cc:fe:fc:f6:e1:ac:42:1c:bc:c9:
                    f1:78:ab:d8:bf:3c:f4:3f:4c:30:87:ab:05:1a:a8:
                    b9:5b:03:19:ab:87:f9:32:0e:77:0e:28:20:62:a1:
                    a2:ba:9f:b0:3a:e8:e7:b2:47:c1:58:8c:5a:56:c1:
                    d4:e8:1a:77:b3:c1:5f:95:ff:7b:d1:83:35:d6:53:
                    76:8e:1c:d1:b6:67:28:ef:9d:12:dc:c4:80:a0:a1:
                    26:64:39:dc:cc:5a:f7:2e:31:3c:c1:91:46:78:cb:
                    b3:2c:6e:33:df:6f:92:46:17:cb:ba:e7:c5:cb:52:
                    a3:b1:ad:18:82:49:55:a6:cd:b9:76:74:a5:e6:98:
                    f6:4b:b4:09:48:0a:02:c4:27:74:b9:13:1f:3f:1b:
                    22:1d
                Exponent: 65537 (0x10001)
        X509v3 extensions:
            X509v3 Key Usage: critical
                Certificate Sign, CRL Sign
            X509v3 Basic Constraints: critical
                CA:TRUE
            X509v3 Subject Key Identifier: 
                1E:23:63:F0:85:B5:F6:25:4E:ED:1A:C0:50:BE:65:7C:C7:D4:15:7A
    Signature Algorithm: sha256WithRSAEncryption
    Signature Value:
        95:6f:b9:48:e1:de:3d:bb:b1:2d:09:7d:37:fe:b5:02:0a:26:
        99:eb:83:4c:c7:1a:91:99:c4:95:75:4c:7a:c9:1a:db:97:c3:
        4d:14:da:fa:ca:6d:a4:4e:fc:1e:d7:e2:64:4c:28:83:c4:ac:
        c9:b0:e4:7f:8d:c3:dc:cc:01:62:62:91:5b:65:06:0b:03:a4:
        4a:d1:bc:db:2f:d4:46:71:ac:39:2c:b8:58:a3:f7:e5:aa:cb:
        b7:37:6f:c7:35:eb:16:6d:e9:28:c4:ba:2c:3f:a3:4b:18:43:
        a7:a6:3d:41:f9:1d:f2:ec:70:90:ab:fd:3c:53:99:77:12:d7:
        ba:4d:12:93:01:ab:dc:d2:6b:72:fa:e0:85:b4:b5:df:fa:d8:
        ab:97:bc:52:68:81:83:d0:bc:1c:60:d7:73:2c:40:7d:83:88:
        de:e8:54:12:58:bd:10:39:76:fe:cd:1e:f9:e5:06:2e:a5:90:
        30:1b:53:e7:3a:06:16:7e:a5:a8:c0:a7:10:41:ec:45:3e:b2:
        86:97:38:74:9d:c2:13:57:f9:c1:12:2f:be:7e:79:d9:ed:31:
        62:c1:a2:b0:7b:e5:ae:b2:ca:d1:39:5d:52:0c:31:76:f5:d9:
        a8:31:c6:d2:14:32:fe:0e:04:8c:69:b5:53:e9:0a:fa:65:ed:
        6b:6e:64:a1
-----BEGIN CERTIFICATE-----
MIID1zCCAr+gAwIBAgILBAAAAAABIBkJGa4wDQYJKoZIhvcNAQELBQAwgYcxOzA5
BgNVBAsTMkdsb2JhbFNpZ24gVHJ1c3RlZCBDb21wdXRpbmcgQ2VydGlmaWNhdGUg
QXV0aG9yaXR5MRMwEQYDVQQKEwpHbG9iYWxTaWduMTMwMQYDVQQDEypHbG9iYWxT
aWduIFRydXN0ZWQgUGxhdGZvcm0gTW9kdWxlIFJvb3QgQ0EwHhcNMDkwMzE4MTAw
MDAwWhcNNDkwMzE4MTAwMDAwWjCBhzE7MDkGA1UECxMyR2xvYmFsU2lnbiBUcnVz
dGVkIENvbXB1dGluZyBDZXJ0aWZpY2F0ZSBBdXRob3JpdHkxEzARBgNVBAoTCkds
b2JhbFNpZ24xMzAxBgNVBAMTKkdsb2JhbFNpZ24gVHJ1c3RlZCBQbGF0Zm9ybSBN
b2R1bGUgUm9vdCBDQTCCASIwDQYJKoZIhvcNAQEBBQADggEPADCCAQoCggEBAPi3
Gi0wHyTT7dq24caFAp31gXFDvALRGJrMiP+TunIYPacYD8eBVSNEiVoCUcVfYxzl
/DPTxmRyGXgQM8CVh9THrxDTW7N2PSAoZ7fvlmjTiBL/IQ7m1F+9wGI/FuaMTphz
w6lBda7HFlIYKTbM/vz24axCHLzJ8Xir2L889D9MMIerBRqouVsDGauH+TIOdw4o
IGKhorqfsDro57JHwViMWlbB1Ogad7PBX5X/e9GDNdZTdo4c0bZnKO+dEtzEgKCh
JmQ53Mxa9y4xPMGRRnjLsyxuM99vkkYXy7rnxctSo7GtGIJJVabNuXZ0peaY9ku0
CUgKAsQndLkTHz8bIh0CAwEAAaNCMEAwDgYDVR0PAQH/BAQDAgEGMA8GA1UdEwEB
/wQFMAMBAf8wHQYDVR0OBBYEFB4jY/CFtfYlTu0awFC+ZXzH1BV6MA0GCSqGSIb3
DQEBCwUAA4IBAQCVb7lI4d49u7EtCX03/rUCCiaZ64NMxxqRmcSVdUx6yRrbl8NN
FNr6ym2kTvwe1+JkTCiDxKzJsOR/jcPczAFiYpFbZQYLA6RK0bzbL9RGcaw5LLhY
o/flqsu3N2/HNesWbekoxLosP6NLGEOnpj1B+R3y7HCQq/08U5l3Ete6TRKTAavc
0mty+uCFtLXf+tirl7xSaIGD0LwcYNdzLEB9g4je6FQSWL0QOXb+zR755QYupZAw
G1PnOgYWfqWowKcQQexFPrKGlzh0ncITV/nBEi++fnnZ7TFiwaKwe+WussrROV1S
DDF29dmoMcbSFDL+DgSMabVT6Qr6Ze1rbmSh
-----END CERTIFICATE-----
