Certificate:
    Data:
        Version: 3 (0x2)
        Serial Number: 1 (0x1)
        Signature Algorithm: sha256WithRSAEncryption
        Issuer: C=US, O=Google, OU=Enterprise, CN=Single Root TLS Issuer CA
        Validity
            Not Before: Dec 28 18:22:37 2024 GMT
            Not After : Dec 28 18:22:37 2034 GMT
        Subject: C=US, O=Google, OU=Enterprise, CN=Single Root TLS Issuer CA
        Subject Public Key Info:
            Public Key Algorithm: rsaEncryption
                Public-Key: (2048 bit)
                Modulus:
                    00:97:cc:3c:36:f7:f3:0b:ac:bf:0a:9e:06:13:77:
                    f0:07:0b:0e:97:77:12:30:40:26:65:09:62:18:b7:
                    bf:4d:54:1e:ec:16:27:2e:62:ce:2c:ad:60:2f:c2:
                    6c:70:d2:3c:c3:ac:be:ab:44:3a:eb:63:bf:80:f1:
                    50:07:f9:af:73:40:50:f7:3b:c6:2f:a8:cc:2c:24:
                    1b:d7:d4:aa:f9:72:12:fe:0d:82:ea:bd:b8:f5:51:
                    d0:81:d2:9c:ea:ed:02:2e:c2:7c:5d:8b:76:15:4f:
                    8a:84:af:73:28:ac:6a:25:43:3e:30:12:45:06:db:
                    01:63:95:b8:39:8a:03:82:f5:da:e7:c4:66:50:8b:
                    88:72:b2:31:b2:8d:c1:c9:6d:3f:88:3b:af:c1:5f:
                    85:14:00:8e:06:c3:cb:37:82:60:aa:c0:cd:93:39:
                    d6:34:ea:63:05:e8:90:52:9f:08:b5:1a:9e:1e:2f:
                    90:2d:3c:0a:ef:3a:18:de:df:04:bf:e8:78:86:0a:
                    95:a3:2f:a8:7c:85:68:ea:d9:e6:8a:04:d0:c8:1f:
                    2c:72:3a:23:aa:67:2c:f1:c2:6d:5d:fb:cc:0b:8c:
                    50:5c:d1:00:81:48:46:b4:8a:66:2b:51:df:89:ea:
                    4d:cf:75:fb:44:db:14:2b:5b:88:1c:94:c4:bb:5d:
                    a9:31
                Exponent: 65537 (0x10001)
        X509v3 extensions:
            X509v3 Key Usage: critical
                Certificate Sign, CRL Sign
            X509v3 Basic Constraints: critical
                CA:TRUE
            X509v3 Subject Key Identifier: 
                5B:CD:AA:A5:F7:B5:65:26:85:74:82:0D:81:2B:9A:41:0F:36:FA:F0
            X509v3 Authority Key Identifier: 
                5B:CD:AA:A5:F7:B5:65:26:85:74:82:0D:81:2B:9A:41:0F:36:FA:F0
    Signature Algorithm: sha256WithRSAEncryption
    Signature Value:
        49:df:85:9a:c3:ff:e3:c8:67:07:ba:c4:2d:80:7d:e3:d7:4c:
        64:58:72:7c:af:fa:56:9f:64:e1:d9:13:bf:d4:03:2f:34:d9:
        45:09:8d:27:af:03:56:b6:ab:26:22:9e:f0:74:79:3d:21:3e:
        d7:3a:6d:3c:3a:4e:48:95:bc:9b:57:09:f4:4a:84:61:24:47:
        84:8f:e5:7b:89:83:72:48:1e:c8:f5:7d:26:cf:6f:6f:af:6b:
        91:af:82:32:11:e8:93:7b:cd:86:2a:6e:35:83:b5:35:0a:bb:
        1b:44:2f:41:14:c7:54:10:05:78:d1:92:38:87:88:4c:f0:a9:
        dd:5b:8a:61:a1:62:3d:1b:d1:f4:be:3c:82:dd:24:4c:e2:04:
        3e:bb:8f:fa:2e:d2:c6:c1:25:0e:27:d3:24:04:f3:36:4c:0c:
        90:93:38:b2:50:21:e6:29:aa:c5:ef:1c:06:0e:fb:c7:86:e7:
        3e:c6:a2:5e:70:aa:d3:86:66:46:98:16:ee:9d:e6:d2:d4:fe:
        cf:9a:d7:b3:06:02:50:cc:8e:1e:ed:bc:52:12:b5:51:71:67:
        82:37:8e:ee:8d:bf:d9:8e:a9:0f:45:5e:ed:72:2f:da:83:f7:
        f6:c3:56:f8:d0:00:d2:87:49:38:8b:bf:82:48:15:e8:e3:3d:
        4f:a0:d0:42
-----BEGIN CERTIFICATE-----
MIIDjDCCAnSgAwIBAgIBATANBgkqhkiG9w0BAQsFADBXMQswCQYDVQQGEwJVUzEP
MA0GA1UECgwGR29vZ2xlMRMwEQYDVQQLDApFbnRlcnByaXNlMSIwIAYDVQQDDBlT
aW5nbGUgUm9vdCBUTFMgSXNzdWVyIENBMB4XDTI0MTIyODE4MjIzN1oXDTM0MTIy
ODE4MjIzN1owVzELMAkGA1UEBhMCVVMxDzANBgNVBAoMBkdvb2dsZTETMBEGA1UE
CwwKRW50ZXJwcmlzZTEiMCAGA1UEAwwZU2luZ2xlIFJvb3QgVExTIElzc3VlciBD
QTCCASIwDQYJKoZIhvcNAQEBBQADggEPADCCAQoCggEBAJfMPDb38wusvwqeBhN3
8AcLDpd3EjBAJmUJYhi3v01UHuwWJy5iziytYC/CbHDSPMOsvqtEOutjv4DxUAf5
r3NAUPc7xi+ozCwkG9fUqvlyEv4Nguq9uPVR0IHSnOrtAi7CfF2LdhVPioSvcyis
aiVDPjASRQbbAWOVuDmKA4L12ufEZlCLiHKyMbKNwcltP4g7r8FfhRQAjgbDyzeC
YKrAzZM51jTqYwXokFKfCLUanh4vkC08Cu86GN7fBL/oeIYKlaMvqHyFaOrZ5ooE
0MgfLHI6I6pnLPHCbV37zAuMUFzRAIFIRrSKZitR34nqTc91+0TbFCtbiByUxLtd
qTECAwEAAaNjMGEwDgYDVR0PAQH/BAQDAgEGMA8GA1UdEwEB/wQFMAMBAf8wHQYD
VR0OBBYEFFvNqqX3tWUmhXSCDYErmkEPNvrwMB8GA1UdIwQYMBaAFFvNqqX3tWUm
hXSCDYErmkEPNvrwMA0GCSqGSIb3DQEBCwUAA4IBAQBJ34Waw//jyGcHusQtgH3j
10xkWHJ8r/pWn2Th2RO/1AMvNNlFCY0nrwNWtqsmIp7wdHk9IT7XOm08Ok5Ilbyb
Vwn0SoRhJEeEj+V7iYNySB7I9X0mz29vr2uRr4IyEeiTe82GKm41g7U1CrsbRC9B
FMdUEAV40ZI4h4hM8KndW4phoWI9G9H0vjyC3SRM4gQ+u4/6LtLGwSUOJ9MkBPM2
TAyQkziyUCHmKarF7xwGDvvHhuc+xqJecKrThmZGmBbunebS1P7PmtezBgJQzI4e
7bxSErVRcWeCN47ujb/ZjqkPRV7tci/ag/f2w1b40ADSh0k4i7+CSBXo4z1PoNBC
-----END CERTIFICATE-----
