Certificate:
    Data:
        Version: 3 (0x2)
        Serial Number: 1 (0x1)
        Signature Algorithm: sha256WithRSAEncryption
        Issuer: C=US, O=Google, OU=Enterprise, CN=Enterprise Root CA
        Validity
            Not Before: Jun 14 00:55:31 2023 GMT
            Not After : Jun 13 00:55:31 2033 GMT
        Subject: C=US, O=Google, OU=Enterprise, CN=Enterprise Root CA
        Subject Public Key Info:
            Public Key Algorithm: rsaEncryption
                Public-Key: (2048 bit)
                Modulus:
                    00:bd:f8:40:b6:36:e1:29:db:b2:f9:b9:e1:47:c2:
                    04:e5:c2:4c:74:fd:0e:63:d6:43:14:23:6e:fe:cb:
                    d6:d5:8a:23:61:ef:cd:d9:04:de:5b:14:e2:c5:db:
                    18:b6:8a:77:2c:03:6c:62:a7:d6:61:31:de:fc:7f:
                    c9:95:c5:76:ed:b8:ba:20:46:f0:c6:2c:2d:e9:ad:
                    2c:70:5e:94:07:59:b5:f4:bb:9d:02:c4:d7:25:16:
                    ba:cc:be:59:e4:c7:82:e7:12:36:3e:76:e3:0d:11:
                    f8:cc:2c:33:a5:c0:24:84:21:8a:b9:3d:d5:a7:75:
                    e2:93:e9:8a:8b:33:db:fd:dd:90:dd:c7:b1:b7:9f:
                    e3:17:2f:dc:06:0d:0a:53:9c:7d:2b:6e:2e:63:13:
                    ee:fa:94:88:b9:75:da:6a:45:93:6b:0f:f9:3f:f3:
                    67:b8:2b:11:43:cc:79:1f:aa:99:16:70:5f:e1:2d:
                    6d:aa:2c:66:3e:3a:ae:7e:77:c1:90:c6:15:f2:d7:
                    02:e0:f7:91:c4:57:52:13:0c:fb:9c:c8:b5:25:b7:
                    81:ab:97:77:f9:2d:f0:d8:28:40:bf:67:83:35:29:
                    34:b8:47:84:84:72:d2:15:58:bf:8a:e5:b6:58:41:
                    cf:73:96:f0:9b:0c:14:72:1c:35:fc:10:1f:f4:98:
                    cd:21
                Exponent: 65537 (0x10001)
        X509v3 extensions:
            X509v3 Key Usage: critical
                Certificate Sign, CRL Sign
            X509v3 Basic Constraints: critical
                CA:TRUE
            X509v3 Subject Key Identifier: 
                06:64:C8:FE:50:DB:CE:BB:BC:3E:86:12:B5:D2:8C:36:D5:48:6F:DA
            X509v3 Authority Key Identifier: 
                06:64:C8:FE:50:DB:CE:BB:BC:3E:86:12:B5:D2:8C:36:D5:48:6F:DA
            X509v3 Extended Key Usage: 
                TLS Web Server Authentication, TLS Web Client Authentication
    Signature Algorithm: sha256WithRSAEncryption
    Signature Value:
        65:1b:75:2f:b4:44:32:23:e2:1e:cc:3f:37:93:dc:b0:58:08:
        3d:79:a0:8a:ee:27:2c:db:e9:02:6b:02:ba:51:9b:3a:82:94:
        5d:9f:dc:20:bb:42:1f:8f:d9:30:13:a2:2f:f8:06:5e:de:b2:
        2c:cd:eb:42:96:81:39:d2:51:73:d4:33:dd:6d:6f:3c:d3:92:
        45:6e:ec:4e:50:2f:d1:02:53:dd:e5:9d:21:4f:b9:8e:e3:fa:
        4e:ee:2a:52:83:87:a2:90:4c:2b:87:e2:70:4e:eb:73:db:e5:
        fb:f6:27:1d:52:ee:db:66:4a:1a:c1:f6:09:a2:ac:1b:68:f4:
        01:f6:bb:8a:dd:58:97:b1:08:ff:98:8f:bb:66:3c:c9:d0:24:
        be:3c:69:26:15:83:27:62:1b:9a:59:d5:3e:a9:4c:0d:0f:cf:
        a8:7e:d7:9e:13:46:2a:dc:45:e7:12:ea:5a:a2:a9:7d:a0:06:
        0f:b0:30:79:aa:1a:dd:d7:cc:6a:ef:f0:51:41:52:13:60:dd:
        de:92:c8:2b:7b:3a:0d:85:e6:57:41:e8:72:ba:9c:fb:84:2b:
        26:cf:ca:96:81:2b:28:db:ea:ca:ac:db:1e:a4:29:30:d1:b2:
        a5:a6:31:e9:b2:d9:68:95:5a:3e:83:63:9b:49:19:84:83:9a:
        2e:05:84:50
-----BEGIN CERTIFICATE-----
MIIDnzCCAoegAwIBAgIBATANBgkqhkiG9w0BAQsFADBQMQswCQYDVQQGEwJVUzEP
MA0GA1UECgwGR29vZ2xlMRMwEQYDVQQLDApFbnRlcnByaXNlMRswGQYDVQQDDBJF
bnRlcnByaXNlIFJvb3QgQ0EwHhcNMjMwNjE0MDA1NTMxWhcNMzMwNjEzMDA1NTMx
WjBQMQswCQYDVQQGEwJVUzEPMA0GA1UECgwGR29vZ2xlMRMwEQYDVQQLDApFbnRl
cnByaXNlMRswGQYDVQQDDBJFbnRlcnByaXNlIFJvb3QgQ0EwggEiMA0GCSqGSIb3
DQEBAQUAA4IBDwAwggEKAoIBAQC9+EC2NuEp27L5ueFHwgTlwkx0/Q5j1kMUI27+
y9bViiNh783ZBN5bFOLF2xi2incsA2xip9ZhMd78f8mVxXbtuLogRvDGLC3prSxw
XpQHWbX0u50CxNclFrrMvlnkx4LnEjY+duMNEfjMLDOlwCSEIYq5PdWndeKT6YqL
M9v93ZDdx7G3n+MXL9wGDQpTnH0rbi5jE+76lIi5ddpqRZNrD/k/82e4KxFDzHkf
qpkWcF/hLW2qLGY+Oq5+d8GQxhXy1wLg95HEV1ITDPucyLUlt4Grl3f5LfDYKEC/
Z4M1KTS4R4SEctIVWL+K5bZYQc9zlvCbDBRyHDX8EB/0mM0hAgMBAAGjgYMwgYAw
DgYDVR0PAQH/BAQDAgEGMA8GA1UdEwEB/wQFMAMBAf8wHQYDVR0OBBYEFAZkyP5Q
2867vD6GErXSjDbVSG/aMB8GA1UdIwQYMBaAFAZkyP5Q2867vD6GErXSjDbVSG/a
MB0GA1UdJQQWMBQGCCsGAQUFBwMBBggrBgEFBQcDAjANBgkqhkiG9w0BAQsFAAOC
AQEAZRt1L7REMiPiHsw/N5PcsFgIPXmgiu4nLNvpAmsCulGbOoKUXZ/cILtCH4/Z
MBOiL/gGXt6yLM3rQpaBOdJRc9Qz3W1vPNOSRW7sTlAv0QJT3eWdIU+5juP6Tu4q
UoOHopBMK4ficE7rc9vl+/YnHVLu22ZKGsH2CaKsG2j0Afa7it1Yl7EI/5iPu2Y8
ydAkvjxpJhWDJ2IbmlnVPqlMDQ/PqH7XnhNGKtxF5xLqWqKpfaAGD7Aweaoa3dfM
au/wUUFSE2Dd3pLIK3s6DYXmV0Hocrqc+4QrJs/KloErKNvqyqzbHqQpMNGypaYx
6bLZaJVaPoNjm0kZhIOaLgWEUA==
-----END CERTIFICATE-----