Certificate:
    Data:
        Version: 3 (0x2)
        Serial Number: 14 (0xe)
        Signature Algorithm: sha256WithRSAEncryption
        Issuer: C=US, O=Google, OU=Enterprise, CN=Single Root CA
        Validity
            Not Before: Apr  5 19:02:45 2024 GMT
            Not After : Apr  5 19:02:45 2034 GMT
        Subject: C=US, O=Google, OU=Enterprise, CN=attestor.domain.com
        Subject Public Key Info:
            Public Key Algorithm: rsaEncryption
                Public-Key: (2048 bit)
                Modulus:
                    00:8a:7b:18:74:8b:7e:45:88:15:71:c6:6e:6c:4b:
                    ce:6f:36:81:22:cb:b8:11:a0:90:e8:92:5c:a1:46:
                    f6:d1:63:40:49:fa:e0:73:f7:89:d8:e3:8a:59:f7:
                    92:b5:e9:e3:96:e0:3a:6d:69:1f:44:b7:6b:60:35:
                    f1:a2:19:75:32:fe:d5:53:d9:10:aa:5e:d1:e5:47:
                    9f:e7:9f:2b:c2:93:00:cd:7d:39:e3:9d:de:71:99:
                    af:de:7a:a2:44:7e:48:7d:ec:a5:5a:24:20:f3:2d:
                    ae:2c:ca:b3:27:c8:73:59:81:26:ae:cf:2d:c0:bb:
                    63:b0:60:70:62:ce:82:2e:0c:1c:7a:0c:6f:eb:35:
                    97:71:6b:fb:6b:b2:bb:be:57:74:14:66:f3:4d:e8:
                    84:58:9f:2d:ab:a0:9f:be:78:a3:d3:4d:ba:79:26:
                    27:27:b8:ed:9a:2a:47:b3:aa:f3:a4:c7:8d:66:0f:
                    d6:7c:aa:93:d9:48:e4:08:72:f4:f1:d9:40:c2:73:
                    1c:9b:06:80:17:be:60:08:e0:6e:07:43:e2:8e:91:
                    42:b0:77:67:8f:d9:ef:41:08:9d:96:f4:29:b4:6a:
                    a0:ac:db:3d:d0:f0:af:40:21:ba:70:61:63:de:0f:
                    73:67:68:1c:7a:90:5d:01:55:f6:04:18:89:d2:e7:
                    24:db
                Exponent: 65537 (0x10001)
        X509v3 extensions:
            X509v3 Key Usage: critical
                Digital Signature
            X509v3 Basic Constraints: 
                CA:FALSE
            X509v3 Extended Key Usage: 
                TLS Web Server Authentication
            X509v3 Subject Key Identifier: 
                B6:86:7F:AA:2C:44:48:7F:5C:42:13:6D:78:5B:38:98:BA:E6:C4:78
            X509v3 Authority Key Identifier: 
                EC:F0:EA:53:53:3F:9F:23:DC:C1:0E:31:10:37:07:DE:DE:E7:6E:F3
            Authority Information Access: 
                CA Issuers - URI:http://pki.esodemoapp2.com/ca/root-ca.cer
            X509v3 CRL Distribution Points: 
                Full Name:
                  URI:http://pki.esodemoapp2.com/ca/root-ca.crl
            X509v3 Subject Alternative Name: 
                DNS:attestor.domain.com
    Signature Algorithm: sha256WithRSAEncryption
    Signature Value:
        ab:ec:5a:a4:8d:aa:ab:98:6b:81:19:90:55:9a:95:b2:4b:e0:
        cf:d7:d1:46:e5:16:81:73:2a:8a:10:67:34:54:28:d4:b2:5a:
        bf:a5:f2:cf:d9:8a:5a:6f:76:c1:18:81:9d:ca:92:e2:08:69:
        3e:e5:6c:9e:3a:42:35:6e:0e:9d:86:5d:f6:f9:42:0b:ca:3e:
        d8:35:c9:54:98:99:d5:7a:2b:da:88:86:22:68:4a:cd:dd:d3:
        97:f0:17:f7:6a:14:2f:cd:b9:67:99:1f:47:6d:23:5e:85:d5:
        cf:54:e3:5b:4f:1d:ab:bf:97:3e:a0:9b:08:3c:0f:64:40:54:
        48:f0:52:a5:2b:58:af:2f:09:a4:28:a9:8e:9e:d9:bd:06:66:
        94:29:1f:f7:0e:46:8d:ed:90:fc:95:a2:82:97:0b:44:44:ed:
        4d:71:f6:f7:e2:c5:56:83:6f:ca:f3:00:1f:c5:08:52:19:51:
        2d:93:6b:9f:e1:21:74:19:e3:ca:a5:81:4d:1e:38:36:95:f0:
        33:aa:f2:18:3a:e2:cf:ce:cc:95:93:56:23:77:95:6c:b0:ac:
        5d:bc:cb:a9:b8:d3:2c:a8:eb:33:22:9a:73:00:13:10:6e:24:
        d8:e2:29:78:b8:85:7c:6e:25:67:be:a4:e7:56:f3:8c:f8:a7:
        d5:c3:06:4b
-----BEGIN CERTIFICATE-----
MIIEMTCCAxmgAwIBAgIBDjANBgkqhkiG9w0BAQsFADBMMQswCQYDVQQGEwJVUzEP
MA0GA1UECgwGR29vZ2xlMRMwEQYDVQQLDApFbnRlcnByaXNlMRcwFQYDVQQDDA5T
aW5nbGUgUm9vdCBDQTAeFw0yNDA0MDUxOTAyNDVaFw0zNDA0MDUxOTAyNDVaMFEx
CzAJBgNVBAYTAlVTMQ8wDQYDVQQKDAZHb29nbGUxEzARBgNVBAsMCkVudGVycHJp
c2UxHDAaBgNVBAMME2F0dGVzdG9yLmRvbWFpbi5jb20wggEiMA0GCSqGSIb3DQEB
AQUAA4IBDwAwggEKAoIBAQCKexh0i35FiBVxxm5sS85vNoEiy7gRoJDoklyhRvbR
Y0BJ+uBz94nY44pZ95K16eOW4DptaR9Et2tgNfGiGXUy/tVT2RCqXtHlR5/nnyvC
kwDNfTnjnd5xma/eeqJEfkh97KVaJCDzLa4syrMnyHNZgSauzy3Au2OwYHBizoIu
DBx6DG/rNZdxa/trsru+V3QUZvNN6IRYny2roJ++eKPTTbp5JicnuO2aKkezqvOk
x41mD9Z8qpPZSOQIcvTx2UDCcxybBoAXvmAI4G4HQ+KOkUKwd2eP2e9BCJ2W9Cm0
aqCs2z3Q8K9AIbpwYWPeD3NnaBx6kF0BVfYEGInS5yTbAgMBAAGjggEXMIIBEzAO
BgNVHQ8BAf8EBAMCB4AwCQYDVR0TBAIwADATBgNVHSUEDDAKBggrBgEFBQcDATAd
BgNVHQ4EFgQUtoZ/qixESH9cQhNteFs4mLrmxHgwHwYDVR0jBBgwFoAU7PDqU1M/
nyPcwQ4xEDcH3t7nbvMwRQYIKwYBBQUHAQEEOTA3MDUGCCsGAQUFBzAChilodHRw
Oi8vcGtpLmVzb2RlbW9hcHAyLmNvbS9jYS9yb290LWNhLmNlcjA6BgNVHR8EMzAx
MC+gLaArhilodHRwOi8vcGtpLmVzb2RlbW9hcHAyLmNvbS9jYS9yb290LWNhLmNy
bDAeBgNVHREEFzAVghNhdHRlc3Rvci5kb21haW4uY29tMA0GCSqGSIb3DQEBCwUA
A4IBAQCr7FqkjaqrmGuBGZBVmpWyS+DP19FG5RaBcyqKEGc0VCjUslq/pfLP2Ypa
b3bBGIGdypLiCGk+5WyeOkI1bg6dhl32+UILyj7YNclUmJnVeivaiIYiaErN3dOX
8Bf3ahQvzblnmR9HbSNehdXPVONbTx2rv5c+oJsIPA9kQFRI8FKlK1ivLwmkKKmO
ntm9BmaUKR/3DkaN7ZD8laKClwtERO1Ncfb34sVWg2/K8wAfxQhSGVEtk2uf4SF0
GePKpYFNHjg2lfAzqvIYOuLPzsyVk1Yjd5VssKxdvMupuNMsqOszIppzABMQbiTY
4il4uIV8biVnvqTnVvOM+KfVwwZL
-----END CERTIFICATE-----
