Certificate:
    Data:
        Version: 3 (0x2)
        Serial Number: 1073741831 (0x40000007)
        Signature Algorithm: sha256WithRSAEncryption
        Issuer: C=CH, O=STMicroelectronics NV, CN=STM TPM EK Root CA
        Validity
            Not Before: Oct 31 00:00:00 2018 GMT
            Not After : Jan  1 00:00:00 2038 GMT
        Subject: C=CH, O=STMicroelectronics NV, CN=STM TPM EK Intermediate CA 06
        Subject Public Key Info:
            Public Key Algorithm: rsaEncryption
                Public-Key: (2048 bit)
                Modulus:
                    00:eb:c8:8d:70:4b:6d:50:5f:20:2e:d2:16:37:33:
                    e2:19:ba:47:42:32:b9:12:69:27:8e:67:a5:8c:ad:
                    94:01:e6:a1:5a:2c:a1:3d:e2:b2:5e:76:4f:85:01:
                    e1:3d:6b:d5:bf:32:ed:8f:af:5b:71:1d:d2:c6:4e:
                    fa:6f:e9:1e:d5:1c:e6:1f:74:e7:4c:a7:19:e7:6d:
                    d2:eb:ee:35:9d:5c:56:75:f6:87:f5:d3:71:d2:88:
                    6b:0a:84:05:55:d1:65:0e:4e:24:ca:7f:68:39:54:
                    c2:c5:1e:05:3f:92:96:10:1a:80:d8:66:c8:dc:36:
                    b4:2d:9a:6f:97:7b:aa:bf:05:53:4d:c3:b3:a8:a8:
                    f3:dd:9a:48:3d:b7:cf:9d:72:2c:08:b1:d7:6d:6e:
                    50:72:0f:98:70:72:69:94:67:68:a7:2d:4d:bb:bb:
                    ba:5c:08:36:5a:dd:70:1f:79:dd:9d:16:55:08:62:
                    97:9c:a3:66:cd:78:c9:de:32:02:70:37:67:56:56:
                    fa:6a:ce:92:bf:1e:85:5b:14:6e:fa:d4:c7:27:e1:
                    30:89:cc:ac:44:c8:c5:1e:11:f5:7e:5c:4c:85:62:
                    6b:64:95:4e:d7:ea:ad:be:97:30:2d:7f:4f:b2:b5:
                    3c:7f:74:41:7b:65:b7:75:88:2c:c3:0d:26:12:c3:
                    cb:e9
                Exponent: 65537 (0x10001)
        X509v3 extensions:
            X509v3 Subject Key Identifier: 
                FB:17:D7:0D:73:48:70:E9:19:C4:E8:E6:03:97:5E:66:4E:0E:43:DE
            X509v3 Authority Key Identifier: 
                6F:E6:C5:6C:07:B7:6C:8B:0A:81:92:83:5C:CB:41:1E:F6:8E:D1:27
            X509v3 Certificate Policies: critical
                Policy: X509v3 Any Policy
                  CPS: http://www.st.com/TPM/repository/
            X509v3 Key Usage: critical
                Certificate Sign
            X509v3 Basic Constraints: critical
                CA:TRUE, pathlen:0
    Signature Algorithm: sha256WithRSAEncryption
    Signature Value:
        3a:2c:22:a5:e5:49:e3:22:bf:84:11:7a:2a:07:dc:09:49:6d:
        96:a9:a8:3e:81:f2:7d:fc:df:a4:f8:cd:05:e6:2a:99:d6:91:
        ab:12:5d:6d:8f:45:69:2a:dc:6c:90:40:84:a4:47:7d:66:0f:
        08:1d:37:4e:75:ac:b6:67:da:76:0c:db:0b:ff:26:21:3c:79:
        e8:26:f6:11:7a:6f:62:1a:c0:bb:c1:bb:6b:9e:21:d2:c2:21:
        12:5a:0a:fc:50:31:65:d8:20:dd:8d:ad:9c:f8:62:85:0f:34:
        c5:da:ad:69:94:68:5e:a8:e2:a8:aa:b5:a7:b2:07:c2:d4:19:
        88:50:82:08:3d:63:9f:2f:2a:7d:92:c2:39:8c:79:d3:f9:89:
        41:79:3c:5a:fc:cf:97:4c:6c:00:e8:69:e4:87:7a:38:07:aa:
        ff:a7:66:c2:35:01:a5:90:73:87:09:9b:9e:de:64:5f:b3:8a:
        9e:ea:15:af:71:fe:f1:7d:59:c9:cc:fc:96:ad:f3:9d:8a:8c:
        68:f5:83:4c:84:26:ea:09:e6:ff:f6:a1:6f:d6:c1:37:41:8b:
        e7:b7:d3:e9:1b:8d:cb:a8:c7:ed:24:59:61:9e:33:65:1b:40:
        1f:23:e8:80:0f:db:81:b0:6c:5e:bd:0d:ac:78:7a:ef:56:35:
        8f:87:0e:60
-----BEGIN CERTIFICATE-----
MIIDzDCCArSgAwIBAgIEQAAABzANBgkqhkiG9w0BAQsFADBKMQswCQYDVQQGEwJD
SDEeMBwGA1UEChMVU1RNaWNyb2VsZWN0cm9uaWNzIE5WMRswGQYDVQQDExJTVE0g
VFBNIEVLIFJvb3QgQ0EwHhcNMTgxMDMxMDAwMDAwWhcNMzgwMTAxMDAwMDAwWjBV
MQswCQYDVQQGEwJDSDEeMBwGA1UEChMVU1RNaWNyb2VsZWN0cm9uaWNzIE5WMSYw
JAYDVQQDEx1TVE0gVFBNIEVLIEludGVybWVkaWF0ZSBDQSAwNjCCASIwDQYJKoZI
hvcNAQEBBQADggEPADCCAQoCggEBAOvIjXBLbVBfIC7SFjcz4hm6R0IyuRJpJ45n
pYytlAHmoVosoT3isl52T4UB4T1r1b8y7Y+vW3Ed0sZO+m/pHtUc5h9050ynGedt
0uvuNZ1cVnX2h/XTcdKIawqEBVXRZQ5OJMp/aDlUwsUeBT+SlhAagNhmyNw2tC2a
b5d7qr8FU03Ds6io892aSD23z51yLAix121uUHIPmHByaZRnaKctTbu7ulwINlrd
cB953Z0WVQhil5yjZs14yd4yAnA3Z1ZW+mrOkr8ehVsUbvrUxyfhMInMrETIxR4R
9X5cTIVia2SVTtfqrb6XMC1/T7K1PH90QXtlt3WILMMNJhLDy+kCAwEAAaOBrjCB
qzAdBgNVHQ4EFgQU+xfXDXNIcOkZxOjmA5deZk4OQ94wHwYDVR0jBBgwFoAUb+bF
bAe3bIsKgZKDXMtBHvaO0ScwRQYDVR0gAQH/BDswOTA3BgRVHSAAMC8wLQYIKwYB
BQUHAgEWIWh0dHA6Ly93d3cuc3QuY29tL1RQTS9yZXBvc2l0b3J5LzAOBgNVHQ8B
Af8EBAMCAgQwEgYDVR0TAQH/BAgwBgEB/wIBADANBgkqhkiG9w0BAQsFAAOCAQEA
OiwipeVJ4yK/hBF6KgfcCUltlqmoPoHyffzfpPjNBeYqmdaRqxJdbY9FaSrcbJBA
hKRHfWYPCB03TnWstmfadgzbC/8mITx56Cb2EXpvYhrAu8G7a54h0sIhEloK/FAx
Zdgg3Y2tnPhihQ80xdqtaZRoXqjiqKq1p7IHwtQZiFCCCD1jny8qfZLCOYx50/mJ
QXk8WvzPl0xsAOhp5Id6OAeq/6dmwjUBpZBzhwmbnt5kX7OKnuoVr3H+8X1Zycz8
lq3znYqMaPWDTIQm6gnm//ahb9bBN0GL57fT6RuNy6jH7SRZYZ4zZRtAHyPogA/b
gbBsXr0NrHh671Y1j4cOYA==
-----END CERTIFICATE-----
Certificate:
    Data:
        Version: 3 (0x2)
        Serial Number:
            04:00:00:00:00:01:22:c1:6c:f3:7e
        Signature Algorithm: sha256WithRSAEncryption
        Issuer: OU=GlobalSign Trusted Computing Certificate Authority, O=GlobalSign, CN=GlobalSign Trusted Platform Module Root CA
        Validity
            Not Before: Jul 28 12:00:00 2009 GMT
            Not After : Dec 31 23:59:59 2039 GMT
        Subject: C=CH, O=STMicroelectronics NV, CN=STM TPM EK Root CA
        Subject Public Key Info:
            Public Key Algorithm: rsaEncryption
                Public-Key: (2048 bit)
                Modulus:
                    00:f1:04:b1:b9:c1:c0:7d:27:43:2c:88:93:2b:7a:
                    85:90:97:6d:5b:04:dd:76:49:21:99:3c:9d:c7:a0:
                    f8:f3:72:bc:c0:cf:a4:8f:cb:e4:eb:16:66:7a:79:
                    45:6c:a6:c1:4b:ff:6d:f0:74:fa:6b:a9:35:2d:0c:
                    78:be:0b:6a:70:93:fd:dd:17:7f:d1:6f:6b:7f:c8:
                    78:22:3e:56:c2:b2:16:29:8b:97:ff:ac:9e:e7:cd:
                    b4:35:71:ad:8b:cd:7d:ec:68:17:b9:dd:57:cd:41:
                    05:74:cd:de:6e:33:40:d3:4a:b9:80:29:4d:51:20:
                    08:f6:5a:56:45:59:7a:0d:e0:d5:93:c9:1b:6a:4f:
                    9b:2e:3c:76:b6:cb:c1:65:09:63:19:2a:54:b4:16:
                    26:38:a5:f3:36:d1:be:58:43:e1:0b:e3:3a:9b:f7:
                    33:79:de:ef:d3:75:86:5e:82:b7:d2:95:cd:f4:36:
                    5f:46:d7:73:20:8b:ef:2b:b4:f1:4a:c2:cc:71:d3:
                    91:01:6e:15:6b:a0:7e:da:29:52:35:76:3b:1f:13:
                    53:15:ad:4c:f0:eb:63:c7:8a:4d:f1:97:3c:e7:5c:
                    c2:fc:3a:36:3f:ff:12:9e:88:25:9c:b0:0a:6e:18:
                    26:88:01:fe:d3:b1:34:62:da:5f:03:34:1d:eb:0a:
                    bd:57
                Exponent: 65537 (0x10001)
        X509v3 extensions:
            X509v3 Key Usage: critical
                Certificate Sign
            X509v3 Basic Constraints: critical
                CA:TRUE, pathlen:1
            X509v3 Subject Key Identifier: 
                6F:E6:C5:6C:07:B7:6C:8B:0A:81:92:83:5C:CB:41:1E:F6:8E:D1:27
            X509v3 Certificate Policies: 
                Policy: 1.3.6.1.4.1.4146.1.90
                  CPS: http://www.globalsign.net/repository/
            X509v3 Authority Key Identifier: 
                1E:23:63:F0:85:B5:F6:25:4E:ED:1A:C0:50:BE:65:7C:C7:D4:15:7A
    Signature Algorithm: sha256WithRSAEncryption
    Signature Value:
        5a:ca:a7:01:66:46:1e:c1:19:da:4f:65:67:35:63:ac:08:6d:
        d4:c0:17:a4:fe:ab:52:b0:0c:97:32:02:38:09:a9:38:45:a7:
        7c:53:02:dd:ed:bf:25:6b:09:17:fb:4f:f6:00:45:81:36:e0:
        33:5a:d2:21:5a:5e:c2:17:79:00:12:0d:81:c9:8c:06:7a:2d:
        04:ec:95:80:5e:45:82:db:0b:db:fc:64:4d:a8:70:a4:82:88:
        2f:00:2d:89:49:5a:4d:fd:5a:86:f4:1f:52:e4:ea:5d:b3:71:
        4a:37:a0:a7:33:1a:20:1c:46:b9:66:c1:5e:3d:eb:0b:c6:ca:
        d7:9d:d9:10:5c:2d:9a:e8:ef:28:4e:38:6a:fd:28:c6:9b:57:
        5e:1f:36:5d:25:1b:ed:f5:27:59:d6:23:68:60:4e:a8:79:dc:
        65:e0:d5:01:f6:62:98:20:0f:76:fb:51:b5:66:73:a1:99:69:
        7d:fb:37:7c:f5:e5:77:d0:69:fb:80:7c:7b:75:d2:46:02:35:
        d7:8f:cc:2f:6d:3b:08:ab:1c:8b:0e:f2:5a:f1:a0:d9:73:39:
        2c:57:f1:2a:90:19:b0:48:fa:45:a8:7b:9f:92:63:78:1d:38:
        61:83:40:a2:1d:c3:75:b5:a6:83:0d:f1:b4:39:c7:b5:c5:72:
        05:4c:c1:55
-----BEGIN CERTIFICATE-----
MIIEDDCCAvSgAwIBAgILBAAAAAABIsFs834wDQYJKoZIhvcNAQELBQAwgYcxOzA5
BgNVBAsTMkdsb2JhbFNpZ24gVHJ1c3RlZCBDb21wdXRpbmcgQ2VydGlmaWNhdGUg
QXV0aG9yaXR5MRMwEQYDVQQKEwpHbG9iYWxTaWduMTMwMQYDVQQDEypHbG9iYWxT
aWduIFRydXN0ZWQgUGxhdGZvcm0gTW9kdWxlIFJvb3QgQ0EwHhcNMDkwNzI4MTIw
MDAwWhcNMzkxMjMxMjM1OTU5WjBKMQswCQYDVQQGEwJDSDEeMBwGA1UEChMVU1RN
aWNyb2VsZWN0cm9uaWNzIE5WMRswGQYDVQQDExJTVE0gVFBNIEVLIFJvb3QgQ0Ew
ggEiMA0GCSqGSIb3DQEBAQUAA4IBDwAwggEKAoIBAQDxBLG5wcB9J0MsiJMreoWQ
l21bBN12SSGZPJ3HoPjzcrzAz6SPy+TrFmZ6eUVspsFL/23wdPprqTUtDHi+C2pw
k/3dF3/Rb2t/yHgiPlbCshYpi5f/rJ7nzbQ1ca2LzX3saBe53VfNQQV0zd5uM0DT
SrmAKU1RIAj2WlZFWXoN4NWTyRtqT5suPHa2y8FlCWMZKlS0FiY4pfM20b5YQ+EL
4zqb9zN53u/TdYZegrfSlc30Nl9G13Mgi+8rtPFKwsxx05EBbhVroH7aKVI1djsf
E1MVrUzw62PHik3xlzznXML8OjY//xKeiCWcsApuGCaIAf7TsTRi2l8DNB3rCr1X
AgMBAAGjgbQwgbEwDgYDVR0PAQH/BAQDAgIEMBIGA1UdEwEB/wQIMAYBAf8CAQEw
HQYDVR0OBBYEFG/mxWwHt2yLCoGSg1zLQR72jtEnMEsGA1UdIAREMEIwQAYJKwYB
BAGgMgFaMDMwMQYIKwYBBQUHAgEWJWh0dHA6Ly93d3cuZ2xvYmFsc2lnbi5uZXQv
cmVwb3NpdG9yeS8wHwYDVR0jBBgwFoAUHiNj8IW19iVO7RrAUL5lfMfUFXowDQYJ
KoZIhvcNAQELBQADggEBAFrKpwFmRh7BGdpPZWc1Y6wIbdTAF6T+q1KwDJcyAjgJ
qThFp3xTAt3tvyVrCRf7T/YARYE24DNa0iFaXsIXeQASDYHJjAZ6LQTslYBeRYLb
C9v8ZE2ocKSCiC8ALYlJWk39Wob0H1Lk6l2zcUo3oKczGiAcRrlmwV496wvGyted
2RBcLZro7yhOOGr9KMabV14fNl0lG+31J1nWI2hgTqh53GXg1QH2YpggD3b7UbVm
c6GZaX37N3z15XfQafuAfHt10kYCNdePzC9tOwirHIsO8lrxoNlzOSxX8SqQGbBI
+kWoe5+SY3gdOGGDQKIdw3W1poMN8bQ5x7XFcgVMwVU=
-----END CERTIFICATE-----
