Certificate:
    Data:
        Version: 3 (0x2)
        Serial Number: 93583579283458 (0x551d20000002)
        Signature Algorithm: sha384WithRSAEncryption
        Issuer: C=CH, O=STMicroelectronics NV, CN=STSAFE RSA Root CA 02
        Validity
            Not Before: Jan 20 00:00:00 2022 GMT
            Not After : Dec 31 00:00:00 9999 GMT
        Subject: C=CH, O=STMicroelectronics NV, CN=STSAFE RSA Root CA 02
        Subject Public Key Info:
            Public Key Algorithm: rsaEncryption
                Public-Key: (4096 bit)
                Modulus:
                    00:c8:3b:47:6d:6e:75:2b:fa:67:0d:b9:cf:74:b4:
                    13:96:cd:94:fd:bb:bf:68:30:13:4e:2d:56:09:90:
                    c0:b4:50:bd:b1:6b:42:44:ae:a3:43:44:86:f4:30:
                    82:ca:ce:ee:af:5e:f4:57:74:3e:1d:5a:2f:f3:c1:
                    73:1f:a6:d8:83:84:d6:63:bf:b0:11:02:8b:47:fe:
                    16:22:07:42:8d:c5:b7:b9:73:22:9a:c8:7d:b4:e6:
                    fe:52:57:d1:31:6d:32:12:8c:e2:ec:5f:85:fe:fd:
                    3b:95:42:d3:26:0f:a2:b4:23:8c:01:28:bf:71:a5:
                    75:c9:26:08:71:7e:73:ff:95:a8:8f:78:43:80:91:
                    9a:e2:c7:0e:a3:17:4e:7c:f8:35:18:29:04:8d:03:
                    f2:ed:f1:bf:20:1b:7c:f3:7a:5a:94:4f:d3:e1:43:
                    60:d6:67:a0:7c:b7:20:86:33:ab:6d:a3:d3:14:1d:
                    ea:5e:69:ba:13:4e:d0:0d:83:24:3e:2a:ab:cb:3d:
                    ef:f4:c0:a7:3b:0e:b6:11:71:9c:40:b1:48:2b:80:
                    f0:3f:1c:92:53:b3:71:3b:4b:5a:0c:75:ef:fb:c0:
                    79:96:3b:f8:26:dc:79:38:b9:03:7f:d6:00:7e:31:
                    20:e9:93:a9:b3:22:06:28:8f:9b:80:8a:15:62:d1:
                    9b:5d:30:d9:02:da:0c:2b:0d:f2:b2:d4:17:bd:af:
                    5c:79:0e:1c:21:04:14:8e:91:fa:9c:59:bc:75:b9:
                    bf:4c:ea:e4:65:de:a6:f6:99:8b:7e:d4:7a:91:3b:
                    b3:45:df:21:84:a0:b0:a5:f7:0a:6f:14:25:30:8d:
                    ae:4c:35:5b:c3:4d:c8:15:48:64:db:7b:83:49:33:
                    b3:b3:23:a3:07:67:fd:dd:22:c4:c3:5c:93:06:e8:
                    98:5e:13:b6:60:75:07:14:97:24:6e:2b:b3:ed:17:
                    44:e2:c8:cd:d4:9d:0b:c3:12:8a:6e:6f:64:95:e6:
                    04:3f:e2:9a:87:a2:09:d1:9b:3b:bd:b3:f7:58:d6:
                    54:a6:6b:7a:fd:74:e6:b3:36:fe:a5:a4:d2:a5:a9:
                    d4:61:b0:6b:db:f2:04:69:00:91:88:09:6f:d0:7d:
                    ba:8b:9b:b8:0a:34:87:46:38:d1:22:a2:c0:b8:69:
                    e9:9f:48:19:d9:98:2c:d5:eb:29:27:09:9e:cb:b3:
                    0f:2a:f4:c9:b4:ad:47:f9:34:0d:d0:76:56:f0:36:
                    2d:71:dc:cf:92:9c:6a:2a:77:56:21:44:7b:25:39:
                    e8:cd:53:c2:54:e7:22:ad:23:c6:76:44:af:85:b0:
                    06:3f:2a:32:bf:b8:ee:f3:a4:67:4e:24:f4:34:bc:
                    fb:49:b1
                Exponent: 65537 (0x10001)
        X509v3 extensions:
            X509v3 Subject Key Identifier: 
                7C:C2:8D:BE:6E:59:D8:4A:54:03:46:9B:13:08:00:D2:F8:F0:6D:27
            X509v3 Key Usage: critical
                Certificate Sign, CRL Sign
            X509v3 Basic Constraints: critical
                CA:TRUE
    Signature Algorithm: sha384WithRSAEncryption
    Signature Value:
        b2:92:2c:98:c8:70:17:1f:34:41:76:a2:77:40:ba:fc:a9:30:
        c3:34:ed:d1:74:b4:e8:66:68:85:45:db:25:69:1a:f6:46:d9:
        43:0e:37:00:10:52:9f:d6:ef:c4:d6:aa:6b:65:ef:76:e8:e6:
        f9:2b:15:88:41:11:2f:0c:08:2a:01:b4:52:f5:f7:77:fb:0e:
        a1:67:e6:6b:98:73:61:e5:a1:f6:50:48:2c:7c:08:bd:bd:9d:
        ca:f0:11:ff:ad:17:aa:4e:6d:28:c4:23:33:e2:ca:1c:27:db:
        48:a6:f1:92:66:12:60:e8:f0:d3:89:db:08:b1:ca:fc:88:d7:
        12:b1:56:09:3b:ad:30:48:cc:67:ee:db:fe:06:e8:7e:66:02:
        45:75:dc:c4:61:9a:93:b9:ec:ec:76:25:ec:c2:40:24:c2:a4:
        c9:63:d2:8c:d7:0d:1b:14:b1:eb:9a:27:e4:73:4c:ba:23:e8:
        de:06:08:c6:c4:c9:27:cf:c1:b9:a7:b6:17:e0:6a:1e:26:9e:
        4b:8c:cf:33:df:aa:81:14:a7:23:90:aa:58:11:bd:87:fa:ee:
        82:c6:05:c5:b3:1b:ba:9e:40:74:a6:7d:ee:da:e3:70:99:74:
        d8:21:02:8e:b6:b7:2c:86:b9:a8:29:4b:fb:98:3b:ed:68:d2:
        1a:d1:b9:4c:4d:14:c4:67:39:30:ad:1d:41:b0:79:bf:1b:3e:
        cd:2e:18:24:0c:8b:fd:a7:5b:b9:a2:20:b0:95:e6:e1:78:9d:
        5c:0c:9f:48:ee:9b:92:04:f8:83:0e:99:1d:bd:53:e0:d3:03:
        45:3d:a8:bf:48:08:63:5b:43:9a:50:b7:32:6d:54:7b:91:7c:
        d2:4f:df:f1:7a:b0:a8:aa:e6:29:23:ea:8b:8d:3b:3e:46:a6:
        a1:80:be:5a:f5:94:4f:54:00:57:dc:3c:2f:9c:30:9a:af:05:
        6a:31:27:d1:8c:63:f8:7b:c6:f6:06:ca:43:33:ec:0f:4e:f4:
        07:d4:ae:0e:c6:4f:aa:73:d1:d3:ed:8b:9b:ce:a8:6d:27:fc:
        9f:71:87:7f:78:a4:ec:93:ad:1a:36:69:27:6a:d3:59:0d:21:
        73:ab:4d:e5:c4:dd:38:f2:7d:c3:f6:67:23:18:39:11:d7:92:
        af:e4:d5:fc:0e:16:6e:08:d7:01:75:d9:06:0b:de:ae:62:98:
        12:be:5d:3c:f5:18:27:48:bf:ea:3e:53:3e:42:55:63:3d:ba:
        83:a4:84:9d:ff:3d:d7:e1:13:5b:bd:d4:fe:6a:03:9d:65:92:
        51:07:53:11:39:05:c3:9c:00:95:75:00:75:6d:af:c3:4c:ee:
        14:34:4a:2e:db:b0:f4:dd
-----BEGIN CERTIFICATE-----
MIIFXjCCA0agAwIBAgIGVR0gAAACMA0GCSqGSIb3DQEBDAUAME0xCzAJBgNVBAYT
AkNIMR4wHAYDVQQKExVTVE1pY3JvZWxlY3Ryb25pY3MgTlYxHjAcBgNVBAMTFVNU
U0FGRSBSU0EgUm9vdCBDQSAwMjAgFw0yMjAxMjAwMDAwMDBaGA85OTk5MTIzMTAw
MDAwMFowTTELMAkGA1UEBhMCQ0gxHjAcBgNVBAoTFVNUTWljcm9lbGVjdHJvbmlj
cyBOVjEeMBwGA1UEAxMVU1RTQUZFIFJTQSBSb290IENBIDAyMIICIjANBgkqhkiG
9w0BAQEFAAOCAg8AMIICCgKCAgEAyDtHbW51K/pnDbnPdLQTls2U/bu/aDATTi1W
CZDAtFC9sWtCRK6jQ0SG9DCCys7ur170V3Q+HVov88FzH6bYg4TWY7+wEQKLR/4W
IgdCjcW3uXMimsh9tOb+UlfRMW0yEozi7F+F/v07lULTJg+itCOMASi/caV1ySYI
cX5z/5Woj3hDgJGa4scOoxdOfPg1GCkEjQPy7fG/IBt883palE/T4UNg1megfLcg
hjOrbaPTFB3qXmm6E07QDYMkPiqryz3v9MCnOw62EXGcQLFIK4DwPxySU7NxO0ta
DHXv+8B5ljv4Jtx5OLkDf9YAfjEg6ZOpsyIGKI+bgIoVYtGbXTDZAtoMKw3ystQX
va9ceQ4cIQQUjpH6nFm8dbm/TOrkZd6m9pmLftR6kTuzRd8hhKCwpfcKbxQlMI2u
TDVbw03IFUhk23uDSTOzsyOjB2f93SLEw1yTBuiYXhO2YHUHFJckbiuz7RdE4sjN
1J0LwxKKbm9kleYEP+Kah6IJ0Zs7vbP3WNZUpmt6/XTmszb+paTSpanUYbBr2/IE
aQCRiAlv0H26i5u4CjSHRjjRIqLAuGnpn0gZ2Zgs1espJwmey7MPKvTJtK1H+TQN
0HZW8DYtcdzPkpxqKndWIUR7JTnozVPCVOcirSPGdkSvhbAGPyoyv7ju86RnTiT0
NLz7SbECAwEAAaNCMEAwHQYDVR0OBBYEFHzCjb5uWdhKVANGmxMIANL48G0nMA4G
A1UdDwEB/wQEAwIBBjAPBgNVHRMBAf8EBTADAQH/MA0GCSqGSIb3DQEBDAUAA4IC
AQCykiyYyHAXHzRBdqJ3QLr8qTDDNO3RdLToZmiFRdslaRr2RtlDDjcAEFKf1u/E
1qprZe926Ob5KxWIQREvDAgqAbRS9fd3+w6hZ+ZrmHNh5aH2UEgsfAi9vZ3K8BH/
rReqTm0oxCMz4socJ9tIpvGSZhJg6PDTidsIscr8iNcSsVYJO60wSMxn7tv+Buh+
ZgJFddzEYZqTuezsdiXswkAkwqTJY9KM1w0bFLHrmifkc0y6I+jeBgjGxMknz8G5
p7YX4GoeJp5LjM8z36qBFKcjkKpYEb2H+u6CxgXFsxu6nkB0pn3u2uNwmXTYIQKO
trcshrmoKUv7mDvtaNIa0blMTRTEZzkwrR1BsHm/Gz7NLhgkDIv9p1u5oiCwlebh
eJ1cDJ9I7puSBPiDDpkdvVPg0wNFPai/SAhjW0OaULcybVR7kXzST9/xerCoquYp
I+qLjTs+RqahgL5a9ZRPVABX3DwvnDCarwVqMSfRjGP4e8b2BspDM+wPTvQH1K4O
xk+qc9HT7YubzqhtJ/yfcYd/eKTsk60aNmknatNZDSFzq03lxN048n3D9mcjGDkR
15Kv5NX8DhZuCNcBddkGC96uYpgSvl089RgnSL/qPlM+QlVjPbqDpISd/z3X4RNb
vdT+agOdZZJRB1MROQXDnACVdQB1ba/DTO4UNEou27D03Q==
-----END CERTIFICATE-----