Certificate:
    Data:
        Version: 3 (0x2)
        Serial Number:
            04:00:00:00:00:01:22:c1:6c:f3:7e
        Signature Algorithm: sha256WithRSAEncryption
        Issuer: OU=GlobalSign Trusted Computing Certificate Authority, O=GlobalSign, CN=GlobalSign Trusted Platform Module Root CA
        Validity
            Not Before: Jul 28 12:00:00 2009 GMT
            Not After : Dec 31 23:59:59 2039 GMT
        Subject: C=CH, O=STMicroelectronics NV, CN=STM TPM EK Root CA
        Subject Public Key Info:
            Public Key Algorithm: rsaEncryption
                Public-Key: (2048 bit)
                Modulus:
                    00:f1:04:b1:b9:c1:c0:7d:27:43:2c:88:93:2b:7a:
                    85:90:97:6d:5b:04:dd:76:49:21:99:3c:9d:c7:a0:
                    f8:f3:72:bc:c0:cf:a4:8f:cb:e4:eb:16:66:7a:79:
                    45:6c:a6:c1:4b:ff:6d:f0:74:fa:6b:a9:35:2d:0c:
                    78:be:0b:6a:70:93:fd:dd:17:7f:d1:6f:6b:7f:c8:
                    78:22:3e:56:c2:b2:16:29:8b:97:ff:ac:9e:e7:cd:
                    b4:35:71:ad:8b:cd:7d:ec:68:17:b9:dd:57:cd:41:
                    05:74:cd:de:6e:33:40:d3:4a:b9:80:29:4d:51:20:
                    08:f6:5a:56:45:59:7a:0d:e0:d5:93:c9:1b:6a:4f:
                    9b:2e:3c:76:b6:cb:c1:65:09:63:19:2a:54:b4:16:
                    26:38:a5:f3:36:d1:be:58:43:e1:0b:e3:3a:9b:f7:
                    33:79:de:ef:d3:75:86:5e:82:b7:d2:95:cd:f4:36:
                    5f:46:d7:73:20:8b:ef:2b:b4:f1:4a:c2:cc:71:d3:
                    91:01:6e:15:6b:a0:7e:da:29:52:35:76:3b:1f:13:
                    53:15:ad:4c:f0:eb:63:c7:8a:4d:f1:97:3c:e7:5c:
                    c2:fc:3a:36:3f:ff:12:9e:88:25:9c:b0:0a:6e:18:
                    26:88:01:fe:d3:b1:34:62:da:5f:03:34:1d:eb:0a:
                    bd:57
                Exponent: 65537 (0x10001)
        X509v3 extensions:
            X509v3 Key Usage: critical
                Certificate Sign
            X509v3 Basic Constraints: critical
                CA:TRUE, pathlen:1
            X509v3 Subject Key Identifier: 
                6F:E6:C5:6C:07:B7:6C:8B:0A:81:92:83:5C:CB:41:1E:F6:8E:D1:27
            X509v3 Certificate Policies: 
                Policy: 1.3.6.1.4.1.4146.1.90
                  CPS: http://www.globalsign.net/repository/
            X509v3 Authority Key Identifier: 
                1E:23:63:F0:85:B5:F6:25:4E:ED:1A:C0:50:BE:65:7C:C7:D4:15:7A
    Signature Algorithm: sha256WithRSAEncryption
    Signature Value:
        5a:ca:a7:01:66:46:1e:c1:19:da:4f:65:67:35:63:ac:08:6d:
        d4:c0:17:a4:fe:ab:52:b0:0c:97:32:02:38:09:a9:38:45:a7:
        7c:53:02:dd:ed:bf:25:6b:09:17:fb:4f:f6:00:45:81:36:e0:
        33:5a:d2:21:5a:5e:c2:17:79:00:12:0d:81:c9:8c:06:7a:2d:
        04:ec:95:80:5e:45:82:db:0b:db:fc:64:4d:a8:70:a4:82:88:
        2f:00:2d:89:49:5a:4d:fd:5a:86:f4:1f:52:e4:ea:5d:b3:71:
        4a:37:a0:a7:33:1a:20:1c:46:b9:66:c1:5e:3d:eb:0b:c6:ca:
        d7:9d:d9:10:5c:2d:9a:e8:ef:28:4e:38:6a:fd:28:c6:9b:57:
        5e:1f:36:5d:25:1b:ed:f5:27:59:d6:23:68:60:4e:a8:79:dc:
        65:e0:d5:01:f6:62:98:20:0f:76:fb:51:b5:66:73:a1:99:69:
        7d:fb:37:7c:f5:e5:77:d0:69:fb:80:7c:7b:75:d2:46:02:35:
        d7:8f:cc:2f:6d:3b:08:ab:1c:8b:0e:f2:5a:f1:a0:d9:73:39:
        2c:57:f1:2a:90:19:b0:48:fa:45:a8:7b:9f:92:63:78:1d:38:
        61:83:40:a2:1d:c3:75:b5:a6:83:0d:f1:b4:39:c7:b5:c5:72:
        05:4c:c1:55
-----BEGIN CERTIFICATE-----
MIIEDDCCAvSgAwIBAgILBAAAAAABIsFs834wDQYJKoZIhvcNAQELBQAwgYcxOzA5
BgNVBAsTMkdsb2JhbFNpZ24gVHJ1c3RlZCBDb21wdXRpbmcgQ2VydGlmaWNhdGUg
QXV0aG9yaXR5MRMwEQYDVQQKEwpHbG9iYWxTaWduMTMwMQYDVQQDEypHbG9iYWxT
aWduIFRydXN0ZWQgUGxhdGZvcm0gTW9kdWxlIFJvb3QgQ0EwHhcNMDkwNzI4MTIw
MDAwWhcNMzkxMjMxMjM1OTU5WjBKMQswCQYDVQQGEwJDSDEeMBwGA1UEChMVU1RN
aWNyb2VsZWN0cm9uaWNzIE5WMRswGQYDVQQDExJTVE0gVFBNIEVLIFJvb3QgQ0Ew
ggEiMA0GCSqGSIb3DQEBAQUAA4IBDwAwggEKAoIBAQDxBLG5wcB9J0MsiJMreoWQ
l21bBN12SSGZPJ3HoPjzcrzAz6SPy+TrFmZ6eUVspsFL/23wdPprqTUtDHi+C2pw
k/3dF3/Rb2t/yHgiPlbCshYpi5f/rJ7nzbQ1ca2LzX3saBe53VfNQQV0zd5uM0DT
SrmAKU1RIAj2WlZFWXoN4NWTyRtqT5suPHa2y8FlCWMZKlS0FiY4pfM20b5YQ+EL
4zqb9zN53u/TdYZegrfSlc30Nl9G13Mgi+8rtPFKwsxx05EBbhVroH7aKVI1djsf
E1MVrUzw62PHik3xlzznXML8OjY//xKeiCWcsApuGCaIAf7TsTRi2l8DNB3rCr1X
AgMBAAGjgbQwgbEwDgYDVR0PAQH/BAQDAgIEMBIGA1UdEwEB/wQIMAYBAf8CAQEw
HQYDVR0OBBYEFG/mxWwHt2yLCoGSg1zLQR72jtEnMEsGA1UdIAREMEIwQAYJKwYB
BAGgMgFaMDMwMQYIKwYBBQUHAgEWJWh0dHA6Ly93d3cuZ2xvYmFsc2lnbi5uZXQv
cmVwb3NpdG9yeS8wHwYDVR0jBBgwFoAUHiNj8IW19iVO7RrAUL5lfMfUFXowDQYJ
KoZIhvcNAQELBQADggEBAFrKpwFmRh7BGdpPZWc1Y6wIbdTAF6T+q1KwDJcyAjgJ
qThFp3xTAt3tvyVrCRf7T/YARYE24DNa0iFaXsIXeQASDYHJjAZ6LQTslYBeRYLb
C9v8ZE2ocKSCiC8ALYlJWk39Wob0H1Lk6l2zcUo3oKczGiAcRrlmwV496wvGyted
2RBcLZro7yhOOGr9KMabV14fNl0lG+31J1nWI2hgTqh53GXg1QH2YpggD3b7UbVm
c6GZaX37N3z15XfQafuAfHt10kYCNdePzC9tOwirHIsO8lrxoNlzOSxX8SqQGbBI
+kWoe5+SY3gdOGGDQKIdw3W1poMN8bQ5x7XFcgVMwVU=
-----END CERTIFICATE-----
