Certificate:
    Data:
        Version: 3 (0x2)
        Serial Number: 1073741831 (0x40000007)
        Signature Algorithm: sha256WithRSAEncryption
        Issuer: C=CH, O=STMicroelectronics NV, CN=STM TPM EK Root CA
        Validity
            Not Before: Oct 31 00:00:00 2018 GMT
            Not After : Jan  1 00:00:00 2038 GMT
        Subject: C=CH, O=STMicroelectronics NV, CN=STM TPM EK Intermediate CA 06
        Subject Public Key Info:
            Public Key Algorithm: rsaEncryption
                Public-Key: (2048 bit)
                Modulus:
                    00:eb:c8:8d:70:4b:6d:50:5f:20:2e:d2:16:37:33:
                    e2:19:ba:47:42:32:b9:12:69:27:8e:67:a5:8c:ad:
                    94:01:e6:a1:5a:2c:a1:3d:e2:b2:5e:76:4f:85:01:
                    e1:3d:6b:d5:bf:32:ed:8f:af:5b:71:1d:d2:c6:4e:
                    fa:6f:e9:1e:d5:1c:e6:1f:74:e7:4c:a7:19:e7:6d:
                    d2:eb:ee:35:9d:5c:56:75:f6:87:f5:d3:71:d2:88:
                    6b:0a:84:05:55:d1:65:0e:4e:24:ca:7f:68:39:54:
                    c2:c5:1e:05:3f:92:96:10:1a:80:d8:66:c8:dc:36:
                    b4:2d:9a:6f:97:7b:aa:bf:05:53:4d:c3:b3:a8:a8:
                    f3:dd:9a:48:3d:b7:cf:9d:72:2c:08:b1:d7:6d:6e:
                    50:72:0f:98:70:72:69:94:67:68:a7:2d:4d:bb:bb:
                    ba:5c:08:36:5a:dd:70:1f:79:dd:9d:16:55:08:62:
                    97:9c:a3:66:cd:78:c9:de:32:02:70:37:67:56:56:
                    fa:6a:ce:92:bf:1e:85:5b:14:6e:fa:d4:c7:27:e1:
                    30:89:cc:ac:44:c8:c5:1e:11:f5:7e:5c:4c:85:62:
                    6b:64:95:4e:d7:ea:ad:be:97:30:2d:7f:4f:b2:b5:
                    3c:7f:74:41:7b:65:b7:75:88:2c:c3:0d:26:12:c3:
                    cb:e9
                Exponent: 65537 (0x10001)
        X509v3 extensions:
            X509v3 Subject Key Identifier: 
                FB:17:D7:0D:73:48:70:E9:19:C4:E8:E6:03:97:5E:66:4E:0E:43:DE
            X509v3 Authority Key Identifier: 
                6F:E6:C5:6C:07:B7:6C:8B:0A:81:92:83:5C:CB:41:1E:F6:8E:D1:27
            X509v3 Certificate Policies: critical
                Policy: X509v3 Any Policy
                  CPS: http://www.st.com/TPM/repository/
            X509v3 Key Usage: critical
                Certificate Sign
            X509v3 Basic Constraints: critical
                CA:TRUE, pathlen:0
    Signature Algorithm: sha256WithRSAEncryption
    Signature Value:
        3a:2c:22:a5:e5:49:e3:22:bf:84:11:7a:2a:07:dc:09:49:6d:
        96:a9:a8:3e:81:f2:7d:fc:df:a4:f8:cd:05:e6:2a:99:d6:91:
        ab:12:5d:6d:8f:45:69:2a:dc:6c:90:40:84:a4:47:7d:66:0f:
        08:1d:37:4e:75:ac:b6:67:da:76:0c:db:0b:ff:26:21:3c:79:
        e8:26:f6:11:7a:6f:62:1a:c0:bb:c1:bb:6b:9e:21:d2:c2:21:
        12:5a:0a:fc:50:31:65:d8:20:dd:8d:ad:9c:f8:62:85:0f:34:
        c5:da:ad:69:94:68:5e:a8:e2:a8:aa:b5:a7:b2:07:c2:d4:19:
        88:50:82:08:3d:63:9f:2f:2a:7d:92:c2:39:8c:79:d3:f9:89:
        41:79:3c:5a:fc:cf:97:4c:6c:00:e8:69:e4:87:7a:38:07:aa:
        ff:a7:66:c2:35:01:a5:90:73:87:09:9b:9e:de:64:5f:b3:8a:
        9e:ea:15:af:71:fe:f1:7d:59:c9:cc:fc:96:ad:f3:9d:8a:8c:
        68:f5:83:4c:84:26:ea:09:e6:ff:f6:a1:6f:d6:c1:37:41:8b:
        e7:b7:d3:e9:1b:8d:cb:a8:c7:ed:24:59:61:9e:33:65:1b:40:
        1f:23:e8:80:0f:db:81:b0:6c:5e:bd:0d:ac:78:7a:ef:56:35:
        8f:87:0e:60
-----BEGIN CERTIFICATE-----
MIIDzDCCArSgAwIBAgIEQAAABzANBgkqhkiG9w0BAQsFADBKMQswCQYDVQQGEwJD
SDEeMBwGA1UEChMVU1RNaWNyb2VsZWN0cm9uaWNzIE5WMRswGQYDVQQDExJTVE0g
VFBNIEVLIFJvb3QgQ0EwHhcNMTgxMDMxMDAwMDAwWhcNMzgwMTAxMDAwMDAwWjBV
MQswCQYDVQQGEwJDSDEeMBwGA1UEChMVU1RNaWNyb2VsZWN0cm9uaWNzIE5WMSYw
JAYDVQQDEx1TVE0gVFBNIEVLIEludGVybWVkaWF0ZSBDQSAwNjCCASIwDQYJKoZI
hvcNAQEBBQADggEPADCCAQoCggEBAOvIjXBLbVBfIC7SFjcz4hm6R0IyuRJpJ45n
pYytlAHmoVosoT3isl52T4UB4T1r1b8y7Y+vW3Ed0sZO+m/pHtUc5h9050ynGedt
0uvuNZ1cVnX2h/XTcdKIawqEBVXRZQ5OJMp/aDlUwsUeBT+SlhAagNhmyNw2tC2a
b5d7qr8FU03Ds6io892aSD23z51yLAix121uUHIPmHByaZRnaKctTbu7ulwINlrd
cB953Z0WVQhil5yjZs14yd4yAnA3Z1ZW+mrOkr8ehVsUbvrUxyfhMInMrETIxR4R
9X5cTIVia2SVTtfqrb6XMC1/T7K1PH90QXtlt3WILMMNJhLDy+kCAwEAAaOBrjCB
qzAdBgNVHQ4EFgQU+xfXDXNIcOkZxOjmA5deZk4OQ94wHwYDVR0jBBgwFoAUb+bF
bAe3bIsKgZKDXMtBHvaO0ScwRQYDVR0gAQH/BDswOTA3BgRVHSAAMC8wLQYIKwYB
BQUHAgEWIWh0dHA6Ly93d3cuc3QuY29tL1RQTS9yZXBvc2l0b3J5LzAOBgNVHQ8B
Af8EBAMCAgQwEgYDVR0TAQH/BAgwBgEB/wIBADANBgkqhkiG9w0BAQsFAAOCAQEA
OiwipeVJ4yK/hBF6KgfcCUltlqmoPoHyffzfpPjNBeYqmdaRqxJdbY9FaSrcbJBA
hKRHfWYPCB03TnWstmfadgzbC/8mITx56Cb2EXpvYhrAu8G7a54h0sIhEloK/FAx
Zdgg3Y2tnPhihQ80xdqtaZRoXqjiqKq1p7IHwtQZiFCCCD1jny8qfZLCOYx50/mJ
QXk8WvzPl0xsAOhp5Id6OAeq/6dmwjUBpZBzhwmbnt5kX7OKnuoVr3H+8X1Zycz8
lq3znYqMaPWDTIQm6gnm//ahb9bBN0GL57fT6RuNy6jH7SRZYZ4zZRtAHyPogA/b
gbBsXr0NrHh671Y1j4cOYA==
-----END CERTIFICATE-----
