Certificate:
    Data:
        Version: 3 (0x2)
        Serial Number: 1073741840 (0x40000010)
        Signature Algorithm: sha384WithRSAEncryption
        Issuer: C=CH, O=STMicroelectronics NV, CN=STSAFE RSA Root CA 02
        Validity
            Not Before: Jan 20 00:00:00 2022 GMT
            Not After : Jan  1 00:00:00 2042 GMT
        Subject: C=CH, O=STMicroelectronics NV, CN=STSAFE TPM RSA Intermediate CA 10
        Subject Public Key Info:
            Public Key Algorithm: rsaEncryption
                Public-Key: (4096 bit)
                Modulus:
                    00:cb:b5:33:15:9b:a8:9c:63:81:a4:c8:13:d2:19:
                    11:b8:c7:4e:19:b3:74:03:6a:b4:5a:d6:37:57:0c:
                    30:f9:c9:83:6c:75:e9:e4:fb:dc:0d:6f:ea:4e:a1:
                    ea:67:b0:0a:03:f2:82:78:c3:c3:22:11:1e:1e:0e:
                    59:f8:d1:cd:ba:c3:67:e0:b3:ef:14:58:32:58:e7:
                    38:13:9f:f0:3e:34:1a:08:67:8c:29:3a:11:62:13:
                    93:04:5a:48:bb:84:b0:7a:58:f8:19:60:3a:4c:63:
                    7f:2f:1b:44:6b:05:df:5e:24:7c:61:87:7d:b0:6b:
                    b9:28:d0:d0:e8:52:5e:c3:1c:b2:27:eb:1c:8c:78:
                    f9:27:97:f4:4a:71:62:47:b6:99:f7:28:19:32:e2:
                    ac:6e:25:fd:12:22:02:8b:b2:34:cc:aa:96:9a:d7:
                    91:d6:79:80:da:8a:3d:86:0d:25:7f:d0:86:34:b2:
                    f2:eb:0f:0c:8f:fe:d9:ce:34:dd:79:3e:7a:20:91:
                    82:a9:57:35:dc:1c:aa:2e:7b:65:62:04:31:aa:16:
                    b0:ef:fe:2b:58:cf:7c:de:d5:33:2a:8f:af:a2:89:
                    31:86:dc:78:35:7b:19:9c:87:cc:3d:db:76:63:e4:
                    14:e7:f8:57:b6:91:d9:e0:cc:e1:5f:f6:35:42:9d:
                    1c:72:61:99:b7:03:ad:0c:b6:19:09:c8:08:cd:f3:
                    39:19:71:a7:a9:ba:69:1b:17:df:56:50:94:10:d9:
                    ec:8a:e2:31:ac:57:33:25:98:71:9c:30:73:81:d8:
                    01:b6:5b:48:db:9e:d7:a8:d1:8e:0f:85:c5:64:8d:
                    e3:fd:29:51:ee:d7:d0:37:3e:92:20:4e:1c:30:a9:
                    e8:89:37:e4:32:c5:22:0f:7f:09:3c:d8:67:df:97:
                    1a:57:79:bd:b9:ea:1b:fb:c6:fa:a7:d9:84:34:b0:
                    8e:54:81:4f:5a:40:13:99:6e:4b:71:46:9a:d3:06:
                    2a:6a:64:96:d7:d3:ba:0b:54:28:11:b9:9b:66:dd:
                    a0:93:08:83:d5:40:b5:46:1a:fe:f0:4a:3b:3c:eb:
                    78:d0:b0:ef:f9:da:64:ca:1f:3e:40:01:76:a6:58:
                    ab:97:d7:de:ce:24:03:41:58:f4:32:93:7b:b7:f8:
                    eb:d5:f2:d4:9a:7a:d0:bb:ca:e7:b3:7d:05:07:c3:
                    47:1a:0a:00:14:0a:2b:7a:6d:7d:36:10:a0:1b:d1:
                    96:5b:2b:31:96:13:20:61:6e:2c:3e:10:80:96:bd:
                    14:24:b5:7f:b9:4b:e2:e7:56:7b:41:4b:1d:9e:e3:
                    31:df:01:ca:00:28:a6:7a:7b:43:99:6e:f1:da:3e:
                    40:4e:65
                Exponent: 65537 (0x10001)
        X509v3 extensions:
            X509v3 Subject Key Identifier: 
                65:70:62:A7:10:56:91:6F:8C:7F:79:8A:92:DD:E6:D8:1D:0A:98:DA
            X509v3 Authority Key Identifier: 
                7C:C2:8D:BE:6E:59:D8:4A:54:03:46:9B:13:08:00:D2:F8:F0:6D:27
            X509v3 Certificate Policies: critical
                Policy: X509v3 Any Policy
                  CPS: http://sw-center.st.com/STSAFE/
            X509v3 Key Usage: critical
                Certificate Sign, CRL Sign
            X509v3 Basic Constraints: critical
                CA:TRUE, pathlen:0
            Authority Information Access: 
                CA Issuers - URI:http://sw-center.st.com/STSAFE/STSAFERsaRootCA02.crt
            X509v3 CRL Distribution Points: 
                Full Name:
                  URI:http://sw-center.st.com/STSAFE/STSAFERsaRootCA02.crl

    Signature Algorithm: sha384WithRSAEncryption
    Signature Value:
        80:4e:30:4e:14:71:22:39:fc:f9:a4:6b:e3:07:41:91:69:14:
        8e:31:02:3f:91:c7:11:e4:50:52:ae:c2:55:df:05:61:9c:40:
        40:f5:63:dc:f6:c3:19:e5:56:ab:0e:23:69:49:85:a2:86:dc:
        85:01:ee:f6:41:6a:ac:45:aa:fa:a1:16:00:1e:fc:2c:46:2a:
        36:97:95:ba:19:b0:9e:e7:47:1b:76:f6:8e:42:55:42:e7:01:
        d0:9c:ff:a4:cb:07:4e:53:22:b4:55:12:86:3f:9a:89:86:04:
        ba:65:ef:2f:d0:fa:5c:e9:fd:54:b3:13:47:5a:62:35:bb:2d:
        68:54:68:c5:f9:59:77:77:6d:c4:0f:3e:86:d8:12:d1:c3:3c:
        cc:b0:d2:99:e8:c3:34:c5:f3:61:f1:4b:38:42:fa:63:0d:f9:
        be:ca:c9:97:ef:02:98:a0:90:40:73:18:a9:68:50:c0:13:33:
        46:2d:27:1a:82:c2:7d:52:f2:79:c2:11:32:c6:f1:b5:4e:bb:
        cf:ca:f3:3f:6f:e6:94:ec:7f:01:68:13:48:b1:47:55:2b:07:
        f0:91:51:d0:6a:1e:02:c9:dd:da:5e:e9:6d:16:12:68:4d:3e:
        38:1e:23:3a:91:8a:9f:7b:eb:4f:77:72:9b:ab:18:44:a1:b0:
        1b:17:26:55:12:8b:77:09:83:10:57:e6:55:2b:9c:5f:1b:84:
        de:ee:cf:6b:13:a1:cb:78:61:8f:de:f5:a5:39:3b:55:0a:c3:
        16:1b:7f:45:7d:5c:fe:e2:8b:21:ca:05:e4:f1:ce:86:ac:05:
        16:48:3d:80:f7:ac:f4:37:87:a0:e0:c2:9e:98:69:84:e7:ac:
        da:43:1e:b9:8d:f8:e4:e4:78:85:0e:c7:fe:03:bc:cc:01:9d:
        0f:eb:51:55:51:9f:c6:58:b2:58:e9:28:9c:32:97:af:d7:6b:
        06:37:8b:54:92:a6:4e:69:b8:19:10:0c:f1:76:76:8a:ad:65:
        12:38:55:55:13:c7:ba:97:e4:e7:40:a4:bf:c4:60:f2:0a:ed:
        00:34:e3:d1:a8:c2:cc:df:1e:4a:c7:d9:15:67:c9:06:62:cf:
        bc:15:18:95:5f:1e:b5:59:52:47:ce:d9:9f:26:67:14:42:2a:
        eb:a0:82:59:b8:4c:00:25:84:ed:e7:be:ac:39:0c:47:53:d4:
        76:54:ec:94:80:d4:40:77:06:12:bf:2e:8f:53:b2:23:0e:33:
        2e:4d:86:9e:33:22:42:24:61:51:72:71:64:fd:0a:9b:1d:71:
        48:e1:e3:4d:e6:0b:43:2a:14:fb:b8:a1:2b:41:f3:c4:86:36:
        0b:77:31:7c:fc:e6:16:ef
-----BEGIN CERTIFICATE-----
MIIGbDCCBFSgAwIBAgIEQAAAEDANBgkqhkiG9w0BAQwFADBNMQswCQYDVQQGEwJD
SDEeMBwGA1UEChMVU1RNaWNyb2VsZWN0cm9uaWNzIE5WMR4wHAYDVQQDExVTVFNB
RkUgUlNBIFJvb3QgQ0EgMDIwHhcNMjIwMTIwMDAwMDAwWhcNNDIwMTAxMDAwMDAw
WjBZMQswCQYDVQQGEwJDSDEeMBwGA1UEChMVU1RNaWNyb2VsZWN0cm9uaWNzIE5W
MSowKAYDVQQDEyFTVFNBRkUgVFBNIFJTQSBJbnRlcm1lZGlhdGUgQ0EgMTAwggIi
MA0GCSqGSIb3DQEBAQUAA4ICDwAwggIKAoICAQDLtTMVm6icY4GkyBPSGRG4x04Z
s3QDarRa1jdXDDD5yYNsdenk+9wNb+pOoepnsAoD8oJ4w8MiER4eDln40c26w2fg
s+8UWDJY5zgTn/A+NBoIZ4wpOhFiE5MEWki7hLB6WPgZYDpMY38vG0RrBd9eJHxh
h32wa7ko0NDoUl7DHLIn6xyMePknl/RKcWJHtpn3KBky4qxuJf0SIgKLsjTMqpaa
15HWeYDaij2GDSV/0IY0svLrDwyP/tnONN15PnogkYKpVzXcHKoue2ViBDGqFrDv
/itYz3ze1TMqj6+iiTGG3Hg1exmch8w923Zj5BTn+Fe2kdngzOFf9jVCnRxyYZm3
A60MthkJyAjN8zkZcaepumkbF99WUJQQ2eyK4jGsVzMlmHGcMHOB2AG2W0jbnteo
0Y4PhcVkjeP9KVHu19A3PpIgThwwqeiJN+QyxSIPfwk82GfflxpXeb256hv7xvqn
2YQ0sI5UgU9aQBOZbktxRprTBipqZJbX07oLVCgRuZtm3aCTCIPVQLVGGv7wSjs8
63jQsO/52mTKHz5AAXamWKuX197OJANBWPQyk3u3+OvV8tSaetC7yuezfQUHw0ca
CgAUCit6bX02EKAb0ZZbKzGWEyBhbiw+EICWvRQktX+5S+LnVntBSx2e4zHfAcoA
KKZ6e0OZbvHaPkBOZQIDAQABo4IBRjCCAUIwHQYDVR0OBBYEFGVwYqcQVpFvjH95
ipLd5tgdCpjaMB8GA1UdIwQYMBaAFHzCjb5uWdhKVANGmxMIANL48G0nMEMGA1Ud
IAEB/wQ5MDcwNQYEVR0gADAtMCsGCCsGAQUFBwIBFh9odHRwOi8vc3ctY2VudGVy
LnN0LmNvbS9TVFNBRkUvMA4GA1UdDwEB/wQEAwIBBjASBgNVHRMBAf8ECDAGAQH/
AgEAMFAGCCsGAQUFBwEBBEQwQjBABggrBgEFBQcwAoY0aHR0cDovL3N3LWNlbnRl
ci5zdC5jb20vU1RTQUZFL1NUU0FGRVJzYVJvb3RDQTAyLmNydDBFBgNVHR8EPjA8
MDqgOKA2hjRodHRwOi8vc3ctY2VudGVyLnN0LmNvbS9TVFNBRkUvU1RTQUZFUnNh
Um9vdENBMDIuY3JsMA0GCSqGSIb3DQEBDAUAA4ICAQCATjBOFHEiOfz5pGvjB0GR
aRSOMQI/kccR5FBSrsJV3wVhnEBA9WPc9sMZ5VarDiNpSYWihtyFAe72QWqsRar6
oRYAHvwsRio2l5W6GbCe50cbdvaOQlVC5wHQnP+kywdOUyK0VRKGP5qJhgS6Ze8v
0Ppc6f1UsxNHWmI1uy1oVGjF+Vl3d23EDz6G2BLRwzzMsNKZ6MM0xfNh8Us4Qvpj
Dfm+ysmX7wKYoJBAcxipaFDAEzNGLScagsJ9UvJ5whEyxvG1TrvPyvM/b+aU7H8B
aBNIsUdVKwfwkVHQah4Cyd3aXultFhJoTT44HiM6kYqfe+tPd3KbqxhEobAbFyZV
Eot3CYMQV+ZVK5xfG4Te7s9rE6HLeGGP3vWlOTtVCsMWG39FfVz+4oshygXk8c6G
rAUWSD2A96z0N4eg4MKemGmE56zaQx65jfjk5HiFDsf+A7zMAZ0P61FVUZ/GWLJY
6SicMpev12sGN4tUkqZOabgZEAzxdnaKrWUSOFVVE8e6l+TnQKS/xGDyCu0ANOPR
qMLM3x5Kx9kVZ8kGYs+8FRiVXx61WVJHztmfJmcUQirroIJZuEwAJYTt576sOQxH
U9R2VOyUgNRAdwYSvy6PU7IjDjMuTYaeMyJCJGFRcnFk/QqbHXFI4eNN5gtDKhT7
uKErQfPEhjYLdzF8/OYW7w==
-----END CERTIFICATE-----
